Certificate:
    Data:
        Version: 3 (0x2)
        Serial Number:
            9a:fc:bf:e3:2a:b1:ad:d8:e2:d4:69:70:05:05:ca:5f
        Signature Algorithm: ecdsa-with-SHA512
        Issuer: CN=yxs
        Validity
            Not Before: Jun 22 04:02:54 2022 GMT
            Not After : Sep 24 04:02:54 2024 GMT
        Subject: C=CN, ST=GD, L=SZ, O=PKU, OU=SECE, CN=server/emailAddress=server@pku.edu.cn
        Subject Public Key Info:
            Public Key Algorithm: rsaEncryption
                RSA Public-Key: (2048 bit)
                Modulus:
                    00:d1:75:2a:0f:b7:54:1d:5b:f5:28:70:ef:8a:cd:
                    9f:f9:e7:ac:ac:19:b8:27:4b:63:7e:ca:02:b6:09:
                    6e:39:66:93:60:04:b0:ad:44:52:d7:c4:ea:bb:e1:
                    55:d0:f6:6a:b1:02:04:24:20:a6:e3:ba:d4:58:4f:
                    aa:56:44:72:e8:d6:50:60:6e:43:14:c4:1c:cc:91:
                    53:26:47:7b:b8:4f:38:00:d0:fb:a3:e6:ed:10:47:
                    c7:fc:6e:03:2d:4c:95:81:eb:a9:62:bd:21:4a:d9:
                    0a:fc:b9:ea:41:f0:70:96:d1:b4:ca:d1:55:9d:34:
                    72:0b:9b:53:ee:78:fe:f3:8c:8d:12:fd:7e:b2:15:
                    4e:8b:06:25:c0:2c:ed:ea:40:60:68:19:fd:a5:84:
                    18:15:a5:68:e9:86:86:02:cc:0b:e2:04:ab:0d:c8:
                    75:40:4a:3f:77:c7:c5:3a:6f:9a:68:5f:82:cb:a0:
                    bc:16:99:3e:70:4f:ee:61:9b:28:d0:11:c0:f6:fd:
                    ee:e2:a4:48:68:1a:2e:d4:a2:7e:39:d7:47:7f:3a:
                    e1:3b:ee:85:d6:b6:ee:6b:ff:66:50:7b:7d:7e:f8:
                    b0:5b:06:2d:79:6c:05:57:ec:33:21:4f:ce:63:4c:
                    9a:d6:b4:6b:98:c9:e6:02:a3:b3:1f:48:64:7d:bc:
                    ae:27
                Exponent: 65537 (0x10001)
        X509v3 extensions:
            X509v3 Basic Constraints: 
                CA:FALSE
            X509v3 Subject Key Identifier: 
                37:84:74:AD:96:F9:10:6B:93:B2:C2:0B:31:1B:CD:C2:B8:1B:B2:A2
            X509v3 Authority Key Identifier: 
                keyid:17:92:83:4A:34:55:C0:04:EA:16:9E:7E:CA:61:0F:A3:1A:4A:22:9C
                DirName:/CN=yxs
                serial:D3:A8:8A:C4:A1:1E:7F:3B

            X509v3 Extended Key Usage: 
                TLS Web Client Authentication
            X509v3 Key Usage: 
                Digital Signature
    Signature Algorithm: ecdsa-with-SHA512
         30:65:02:31:00:b0:76:c3:bc:7b:b3:05:1b:9e:2c:00:96:aa:
         34:89:16:d4:8b:0b:e4:df:da:af:c6:e9:3d:83:d7:04:92:1c:
         32:ef:eb:83:ba:23:44:af:75:97:48:44:5f:3b:15:81:4e:02:
         30:76:4f:12:cd:62:44:c2:3f:2b:cb:f5:26:f7:40:aa:e5:63:
         b0:f9:4f:80:f5:1d:9b:af:81:e3:2b:37:0d:21:ba:98:22:78:
         f6:b0:87:f0:9d:e0:e7:b3:1d:8a:bc:ea:b4
-----BEGIN CERTIFICATE-----
MIIC/zCCAoWgAwIBAgIRAJr8v+Mqsa3Y4tRpcAUFyl8wCgYIKoZIzj0EAwQwDjEM
MAoGA1UEAwwDeXhzMB4XDTIyMDYyMjA0MDI1NFoXDTI0MDkyNDA0MDI1NFowdzEL
MAkGA1UEBhMCQ04xCzAJBgNVBAgMAkdEMQswCQYDVQQHDAJTWjEMMAoGA1UECgwD
UEtVMQ0wCwYDVQQLDARTRUNFMQ8wDQYDVQQDDAZzZXJ2ZXIxIDAeBgkqhkiG9w0B
CQEWEXNlcnZlckBwa3UuZWR1LmNuMIIBIjANBgkqhkiG9w0BAQEFAAOCAQ8AMIIB
CgKCAQEA0XUqD7dUHVv1KHDvis2f+eesrBm4J0tjfsoCtgluOWaTYASwrURS18Tq
u+FV0PZqsQIEJCCm47rUWE+qVkRy6NZQYG5DFMQczJFTJkd7uE84AND7o+btEEfH
/G4DLUyVgeupYr0hStkK/LnqQfBwltG0ytFVnTRyC5tT7nj+84yNEv1+shVOiwYl
wCzt6kBgaBn9pYQYFaVo6YaGAswL4gSrDch1QEo/d8fFOm+aaF+Cy6C8Fpk+cE/u
YZso0BHA9v3u4qRIaBou1KJ+OddHfzrhO+6F1rbua/9mUHt9fviwWwYteWwFV+wz
IU/OY0ya1rRrmMnmAqOzH0hkfbyuJwIDAQABo4GPMIGMMAkGA1UdEwQCMAAwHQYD
VR0OBBYEFDeEdK2W+RBrk7LCCzEbzcK4G7KiMD4GA1UdIwQ3MDWAFBeSg0o0VcAE
6haefsphD6MaSiKcoRKkEDAOMQwwCgYDVQQDDAN5eHOCCQDTqIrEoR5/OzATBgNV
HSUEDDAKBggrBgEFBQcDAjALBgNVHQ8EBAMCB4AwCgYIKoZIzj0EAwQDaAAwZQIx
ALB2w7x7swUbniwAlqo0iRbUiwvk39qvxuk9g9cEkhwy7+uDuiNEr3WXSERfOxWB
TgIwdk8SzWJEwj8ry/Um90Cq5WOw+U+A9R2br4HjKzcNIbqYInj2sIfwneDnsx2K
vOq0
-----END CERTIFICATE-----
