Certificate:
    Data:
        Version: 3 (0x2)
        Serial Number:
            ee:06:cc:66:54:aa:7f:02:d3:16:46:5b:a6:d3:e0:f2
        Signature Algorithm: ecdsa-with-SHA512
        Issuer: CN=yxs
        Validity
            Not Before: Jun 21 22:04:27 2022 GMT
            Not After : Sep 23 22:04:27 2024 GMT
        Subject: C=CN, ST=GD, L=SZ, O=PKU, OU=SECE, CN=client7/emailAddress=client7@pku.edu.cn
        Subject Public Key Info:
            Public Key Algorithm: rsaEncryption
                RSA Public-Key: (2048 bit)
                Modulus:
                    00:be:f3:0e:9b:bc:eb:51:0c:3e:6e:f8:f9:b4:b7:
                    89:d7:4e:57:4a:c4:3c:de:28:4f:63:ca:9e:6a:60:
                    12:79:63:f8:15:29:a6:8d:15:18:b1:54:11:32:3d:
                    a1:fd:17:29:47:14:20:57:5b:e4:24:4e:98:cc:dd:
                    b0:57:84:b3:51:09:2d:92:90:24:d7:ff:29:fd:4a:
                    b1:4b:b8:dd:81:bd:12:e1:2a:3a:7a:68:bc:aa:15:
                    c3:a5:39:19:35:a6:af:5d:78:87:16:ff:6a:77:27:
                    27:5e:44:1d:52:98:95:8b:3f:45:64:61:ec:0c:b6:
                    dd:65:18:53:8b:25:f0:12:82:54:dc:db:d7:46:c5:
                    74:26:f9:e0:33:3d:37:14:a3:c8:50:64:ab:51:bb:
                    5d:8e:07:c2:f7:43:46:1a:52:c5:4e:9b:e3:46:de:
                    ea:cf:c6:27:4d:17:8f:87:83:3e:74:35:a2:97:48:
                    10:6b:03:93:62:01:c8:6d:4c:1e:84:5c:a0:ae:ff:
                    fe:58:76:50:a6:67:2e:2d:cb:d3:ab:6d:ae:eb:10:
                    9b:e2:97:69:d5:e6:fa:1f:94:b3:a0:99:a5:da:dc:
                    87:c1:e5:29:36:5c:0e:33:76:1c:53:a5:b2:22:1c:
                    84:86:ce:b8:32:87:51:58:d7:71:4e:25:4d:9c:5c:
                    98:d7
                Exponent: 65537 (0x10001)
        X509v3 extensions:
            X509v3 Basic Constraints: 
                CA:FALSE
            X509v3 Subject Key Identifier: 
                FD:CF:AA:4A:08:42:5D:DB:15:91:BB:10:9A:81:B5:7C:E5:A1:E7:42
            X509v3 Authority Key Identifier: 
                keyid:17:92:83:4A:34:55:C0:04:EA:16:9E:7E:CA:61:0F:A3:1A:4A:22:9C
                DirName:/CN=yxs
                serial:D3:A8:8A:C4:A1:1E:7F:3B

            X509v3 Extended Key Usage: 
                TLS Web Client Authentication
            X509v3 Key Usage: 
                Digital Signature
    Signature Algorithm: ecdsa-with-SHA512
         30:65:02:31:00:b2:64:16:30:72:74:d7:16:2f:6d:0b:c2:94:
         16:fd:88:09:47:ef:9b:9e:c3:0c:35:fe:4d:b0:c9:c6:00:da:
         4a:88:ff:02:c7:fd:1e:27:25:7d:47:ad:75:38:c7:57:24:02:
         30:30:ac:35:13:a9:84:cf:18:8d:05:9d:ef:8d:18:4a:bf:e0:
         41:3d:0a:4c:7a:3d:4a:eb:c5:70:45:02:c2:7b:98:b4:b4:9f:
         5f:e8:de:f3:59:0b:2c:9d:1c:39:8b:65:fd
-----BEGIN CERTIFICATE-----
MIIDATCCAoegAwIBAgIRAO4GzGZUqn8C0xZGW6bT4PIwCgYIKoZIzj0EAwQwDjEM
MAoGA1UEAwwDeXhzMB4XDTIyMDYyMTIyMDQyN1oXDTI0MDkyMzIyMDQyN1oweTEL
MAkGA1UEBhMCQ04xCzAJBgNVBAgMAkdEMQswCQYDVQQHDAJTWjEMMAoGA1UECgwD
UEtVMQ0wCwYDVQQLDARTRUNFMRAwDgYDVQQDDAdjbGllbnQ3MSEwHwYJKoZIhvcN
AQkBFhJjbGllbnQ3QHBrdS5lZHUuY24wggEiMA0GCSqGSIb3DQEBAQUAA4IBDwAw
ggEKAoIBAQC+8w6bvOtRDD5u+Pm0t4nXTldKxDzeKE9jyp5qYBJ5Y/gVKaaNFRix
VBEyPaH9FylHFCBXW+QkTpjM3bBXhLNRCS2SkCTX/yn9SrFLuN2BvRLhKjp6aLyq
FcOlORk1pq9deIcW/2p3JydeRB1SmJWLP0VkYewMtt1lGFOLJfASglTc29dGxXQm
+eAzPTcUo8hQZKtRu12OB8L3Q0YaUsVOm+NG3urPxidNF4+Hgz50NaKXSBBrA5Ni
AchtTB6EXKCu//5YdlCmZy4ty9Orba7rEJvil2nV5voflLOgmaXa3IfB5Sk2XA4z
dhxTpbIiHISGzrgyh1FY13FOJU2cXJjXAgMBAAGjgY8wgYwwCQYDVR0TBAIwADAd
BgNVHQ4EFgQU/c+qSghCXdsVkbsQmoG1fOWh50IwPgYDVR0jBDcwNYAUF5KDSjRV
wATqFp5+ymEPoxpKIpyhEqQQMA4xDDAKBgNVBAMMA3l4c4IJANOoisShHn87MBMG
A1UdJQQMMAoGCCsGAQUFBwMCMAsGA1UdDwQEAwIHgDAKBggqhkjOPQQDBANoADBl
AjEAsmQWMHJ01xYvbQvClBb9iAlH75uewww1/k2wycYA2kqI/wLH/R4nJX1HrXU4
x1ckAjAwrDUTqYTPGI0Fne+NGEq/4EE9Ckx6PUrrxXBFAsJ7mLS0n1/o3vNZCyyd
HDmLZf0=
-----END CERTIFICATE-----
