Certificate:
    Data:
        Version: 3 (0x2)
        Serial Number:
            64:b1:9d:25:77:49:8f:03:24:60:8e:57:18:3d:03:70
        Signature Algorithm: ecdsa-with-SHA512
        Issuer: CN=yxs
        Validity
            Not Before: Jun 21 21:57:19 2022 GMT
            Not After : Sep 23 21:57:19 2024 GMT
        Subject: C=CN, ST=GD, L=SZ, O=PKU, OU=SECE, CN=client6/emailAddress=client6@pku.edu.cn
        Subject Public Key Info:
            Public Key Algorithm: rsaEncryption
                RSA Public-Key: (2048 bit)
                Modulus:
                    00:b3:84:f1:a0:81:93:dc:dc:be:ae:32:73:ed:24:
                    a2:af:c2:c8:5f:61:6a:c6:9d:ff:f1:69:ec:3e:1e:
                    a7:68:c7:18:82:1d:55:32:11:66:72:fe:47:d1:b2:
                    15:14:97:c8:e1:ad:d0:31:22:df:45:55:ef:26:f3:
                    0f:35:2e:63:c4:94:3c:51:69:33:19:8c:01:a4:be:
                    47:aa:25:6f:4c:16:6e:11:cc:8b:91:de:52:49:f6:
                    8f:69:72:f7:c1:6f:65:6e:ca:9f:c2:3d:bb:df:d4:
                    8e:91:64:ee:b5:d3:2d:ca:21:df:b1:55:8a:b1:58:
                    4a:80:3a:6f:22:ea:8b:46:ba:b2:3e:33:a5:b5:04:
                    9f:8e:5b:c5:06:c9:ac:3c:d6:40:cb:19:b2:47:50:
                    1c:d9:b4:9d:cd:f0:83:d9:cc:2e:fa:ae:5a:a4:82:
                    d9:b2:8f:89:d5:67:a3:5d:6b:f1:51:e2:45:59:38:
                    fc:6f:51:02:fb:a6:86:22:81:ba:df:b6:b1:b4:7a:
                    50:b0:5f:26:2a:77:c1:2e:eb:17:42:c7:99:f8:e0:
                    37:0a:d3:82:ed:fc:dd:a5:cd:2d:61:c0:ae:8a:83:
                    be:6f:9f:c3:ed:3c:f3:20:dd:64:e7:f7:f0:96:81:
                    31:a4:dd:44:ac:9b:dc:7e:32:4d:b8:90:97:62:41:
                    fd:d7
                Exponent: 65537 (0x10001)
        X509v3 extensions:
            X509v3 Basic Constraints: 
                CA:FALSE
            X509v3 Subject Key Identifier: 
                01:A0:65:45:6D:B8:EE:EE:1D:4C:DD:ED:A9:5C:A9:D3:22:80:FF:8D
            X509v3 Authority Key Identifier: 
                keyid:17:92:83:4A:34:55:C0:04:EA:16:9E:7E:CA:61:0F:A3:1A:4A:22:9C
                DirName:/CN=yxs
                serial:D3:A8:8A:C4:A1:1E:7F:3B

            X509v3 Extended Key Usage: 
                TLS Web Client Authentication
            X509v3 Key Usage: 
                Digital Signature
    Signature Algorithm: ecdsa-with-SHA512
         30:65:02:30:09:09:e8:7a:b8:71:9e:fe:c9:a5:2d:d5:dd:38:
         2f:71:73:dd:55:4b:0d:7f:1c:7a:7b:32:af:3a:1b:a0:5e:d3:
         51:48:84:e6:c3:48:2d:e3:66:50:58:ae:a1:ed:56:bd:02:31:
         00:fa:69:87:4d:19:f3:aa:c4:45:2d:6e:09:83:4a:88:ee:91:
         77:d1:24:1f:9a:59:bf:73:e0:1b:6d:e3:cf:0c:65:65:04:30:
         f2:a1:cb:52:bd:86:0e:c8:3f:60:a6:ac:02
-----BEGIN CERTIFICATE-----
MIIDADCCAoagAwIBAgIQZLGdJXdJjwMkYI5XGD0DcDAKBggqhkjOPQQDBDAOMQww
CgYDVQQDDAN5eHMwHhcNMjIwNjIxMjE1NzE5WhcNMjQwOTIzMjE1NzE5WjB5MQsw
CQYDVQQGEwJDTjELMAkGA1UECAwCR0QxCzAJBgNVBAcMAlNaMQwwCgYDVQQKDANQ
S1UxDTALBgNVBAsMBFNFQ0UxEDAOBgNVBAMMB2NsaWVudDYxITAfBgkqhkiG9w0B
CQEWEmNsaWVudDZAcGt1LmVkdS5jbjCCASIwDQYJKoZIhvcNAQEBBQADggEPADCC
AQoCggEBALOE8aCBk9zcvq4yc+0koq/CyF9hasad//Fp7D4ep2jHGIIdVTIRZnL+
R9GyFRSXyOGt0DEi30VV7ybzDzUuY8SUPFFpMxmMAaS+R6olb0wWbhHMi5HeUkn2
j2ly98FvZW7Kn8I9u9/UjpFk7rXTLcoh37FVirFYSoA6byLqi0a6sj4zpbUEn45b
xQbJrDzWQMsZskdQHNm0nc3wg9nMLvquWqSC2bKPidVno11r8VHiRVk4/G9RAvum
hiKBut+2sbR6ULBfJip3wS7rF0LHmfjgNwrTgu383aXNLWHAroqDvm+fw+088yDd
ZOf38JaBMaTdRKyb3H4yTbiQl2JB/dcCAwEAAaOBjzCBjDAJBgNVHRMEAjAAMB0G
A1UdDgQWBBQBoGVFbbju7h1M3e2pXKnTIoD/jTA+BgNVHSMENzA1gBQXkoNKNFXA
BOoWnn7KYQ+jGkoinKESpBAwDjEMMAoGA1UEAwwDeXhzggkA06iKxKEefzswEwYD
VR0lBAwwCgYIKwYBBQUHAwIwCwYDVR0PBAQDAgeAMAoGCCqGSM49BAMEA2gAMGUC
MAkJ6Hq4cZ7+yaUt1d04L3Fz3VVLDX8censyrzoboF7TUUiE5sNILeNmUFiuoe1W
vQIxAPpph00Z86rERS1uCYNKiO6Rd9EkH5pZv3PgG23jzwxlZQQw8qHLUr2GDsg/
YKasAg==
-----END CERTIFICATE-----
