Certificate:
    Data:
        Version: 3 (0x2)
        Serial Number:
            04:b5:25:44:fe:59:21:62:58:57:e1:b3:26:3e:07:c0
        Signature Algorithm: ecdsa-with-SHA512
        Issuer: CN=yxs
        Validity
            Not Before: Jun 22 03:34:42 2022 GMT
            Not After : Sep 24 03:34:42 2024 GMT
        Subject: C=CN, ST=CN, L=CN, O=CN, OU=CN, CN=CN/emailAddress=CN
        Subject Public Key Info:
            Public Key Algorithm: rsaEncryption
                RSA Public-Key: (2048 bit)
                Modulus:
                    00:c2:d8:08:80:43:44:9a:d2:36:6e:98:b5:61:b0:
                    83:9e:6d:a9:05:9e:63:a8:27:14:f9:f9:f0:17:44:
                    0c:26:0e:1f:8a:12:52:7d:d1:a1:e8:39:34:06:ab:
                    33:a9:94:b0:76:6a:2a:2f:14:de:3c:ae:a7:3e:84:
                    8b:c1:ac:b6:46:b3:8c:4d:69:d6:3a:16:22:1f:28:
                    81:b4:f4:e1:92:30:0c:af:b4:c5:dd:af:9b:29:c0:
                    6a:07:91:05:29:3c:54:49:5a:7d:8d:9d:f8:d5:36:
                    95:4a:c1:a2:94:f7:e1:9b:5a:10:57:34:fb:12:de:
                    68:c5:4a:75:e6:c1:03:82:da:f1:56:f1:19:50:3f:
                    ff:e6:1e:8d:a8:c4:aa:56:95:ba:65:e0:11:68:49:
                    e6:fe:ef:a5:30:b4:15:43:d1:24:3e:c1:7f:0b:e2:
                    c4:4c:b1:07:07:89:63:5d:1e:0a:1b:98:82:70:19:
                    e5:08:3c:d1:cb:62:63:55:e8:ca:a4:8f:87:0f:a0:
                    4d:7c:89:55:fb:b8:83:1e:4e:59:9a:6a:c7:16:0f:
                    34:b9:b5:2b:f4:bf:7b:d0:c2:74:76:55:53:be:83:
                    00:52:d4:5c:72:59:ec:49:76:92:3d:c8:ca:f5:90:
                    94:17:8a:31:09:a0:1d:88:7a:42:7f:02:d7:91:26:
                    87:65
                Exponent: 65537 (0x10001)
        X509v3 extensions:
            X509v3 Basic Constraints: 
                CA:FALSE
            X509v3 Subject Key Identifier: 
                D4:A1:9E:6D:5C:16:6C:F6:7D:80:CF:F7:B2:A9:18:52:A6:4F:9D:C3
            X509v3 Authority Key Identifier: 
                keyid:17:92:83:4A:34:55:C0:04:EA:16:9E:7E:CA:61:0F:A3:1A:4A:22:9C
                DirName:/CN=yxs
                serial:D3:A8:8A:C4:A1:1E:7F:3B

            X509v3 Extended Key Usage: 
                TLS Web Client Authentication
            X509v3 Key Usage: 
                Digital Signature
    Signature Algorithm: ecdsa-with-SHA512
         30:65:02:30:75:3b:87:d5:7b:17:f8:ea:0e:c6:de:34:81:f8:
         32:a3:9a:72:69:f2:b6:e5:44:33:26:d1:36:c2:f7:35:21:2b:
         a9:ad:ab:aa:7f:b5:f2:f6:01:5a:a9:bd:f6:5e:f4:76:02:31:
         00:f5:1d:e3:f8:93:58:2a:f9:62:43:f7:11:ce:33:6f:ef:89:
         f9:76:63:11:f4:b8:9a:86:35:99:32:b7:73:f0:6a:c8:05:40:
         1a:7d:20:15:45:39:4b:63:e4:a2:fa:5c:33
-----BEGIN CERTIFICATE-----
MIIC6DCCAm6gAwIBAgIQBLUlRP5ZIWJYV+GzJj4HwDAKBggqhkjOPQQDBDAOMQww
CgYDVQQDDAN5eHMwHhcNMjIwNjIyMDMzNDQyWhcNMjQwOTI0MDMzNDQyWjBhMQsw
CQYDVQQGEwJDTjELMAkGA1UECAwCQ04xCzAJBgNVBAcMAkNOMQswCQYDVQQKDAJD
TjELMAkGA1UECwwCQ04xCzAJBgNVBAMMAkNOMREwDwYJKoZIhvcNAQkBFgJDTjCC
ASIwDQYJKoZIhvcNAQEBBQADggEPADCCAQoCggEBAMLYCIBDRJrSNm6YtWGwg55t
qQWeY6gnFPn58BdEDCYOH4oSUn3Roeg5NAarM6mUsHZqKi8U3jyupz6Ei8Gstkaz
jE1p1joWIh8ogbT04ZIwDK+0xd2vmynAageRBSk8VElafY2d+NU2lUrBopT34Zta
EFc0+xLeaMVKdebBA4La8VbxGVA//+YejajEqlaVumXgEWhJ5v7vpTC0FUPRJD7B
fwvixEyxBweJY10eChuYgnAZ5Qg80ctiY1XoyqSPhw+gTXyJVfu4gx5OWZpqxxYP
NLm1K/S/e9DCdHZVU76DAFLUXHJZ7El2kj3IyvWQlBeKMQmgHYh6Qn8C15Emh2UC
AwEAAaOBjzCBjDAJBgNVHRMEAjAAMB0GA1UdDgQWBBTUoZ5tXBZs9n2Az/eyqRhS
pk+dwzA+BgNVHSMENzA1gBQXkoNKNFXABOoWnn7KYQ+jGkoinKESpBAwDjEMMAoG
A1UEAwwDeXhzggkA06iKxKEefzswEwYDVR0lBAwwCgYIKwYBBQUHAwIwCwYDVR0P
BAQDAgeAMAoGCCqGSM49BAMEA2gAMGUCMHU7h9V7F/jqDsbeNIH4MqOacmnytuVE
MybRNsL3NSErqa2rqn+18vYBWqm99l70dgIxAPUd4/iTWCr5YkP3Ec4zb++J+XZj
EfS4moY1mTK3c/BqyAVAGn0gFUU5S2PkovpcMw==
-----END CERTIFICATE-----
