Certificate:
    Data:
        Version: 3 (0x2)
        Serial Number:
            06:a0:89:0d:56:5a:d6:f0:4f:9d:6f:6d:6c:75:a4:dd
        Signature Algorithm: ecdsa-with-SHA512
        Issuer: CN=yxs
        Validity
            Not Before: Jun 22 03:35:19 2022 GMT
            Not After : Sep 24 03:35:19 2024 GMT
        Subject: C=CL, ST=CL, L=CL, O=CL, OU=CL, CN=CL/emailAddress=CL
        Subject Public Key Info:
            Public Key Algorithm: rsaEncryption
                RSA Public-Key: (2048 bit)
                Modulus:
                    00:b4:ef:0f:b5:67:0d:3c:b0:a9:c4:22:73:ed:e5:
                    0c:aa:ae:37:7d:0d:b6:f8:70:db:ba:84:15:60:fa:
                    ed:31:68:99:b6:fd:41:8a:d2:d9:2c:9e:f9:d2:59:
                    cb:1d:27:aa:dd:d5:ff:b6:d0:09:be:f5:94:fc:ff:
                    48:53:94:ed:3f:22:5b:42:f7:d0:71:93:5b:47:c8:
                    77:32:1c:8b:4b:23:11:fb:e0:1c:af:1b:43:0d:04:
                    c9:7d:b6:5f:3b:96:1d:22:d0:ca:94:a9:53:4c:cc:
                    22:ae:6f:31:e4:a7:41:8e:db:04:b0:fe:7c:08:81:
                    8a:79:e9:91:1d:d4:9d:97:08:6b:95:39:f3:5a:ca:
                    ee:52:ed:c7:3e:e3:36:89:7c:8c:f3:aa:00:5c:23:
                    bf:2c:9b:d4:92:88:f1:47:24:0b:4c:3e:5e:96:f2:
                    ca:6f:8c:8c:4f:07:f5:ab:41:84:2f:c3:1b:cb:e5:
                    52:aa:77:6f:8a:c6:30:07:26:85:34:d7:22:2d:a8:
                    c3:eb:f0:02:7c:24:91:4f:c5:eb:fc:63:83:d4:f7:
                    80:b2:a1:b7:9f:74:b2:df:18:43:3b:90:4e:05:2f:
                    ea:06:7a:b4:36:cf:2d:8b:7f:3d:69:0f:2b:32:56:
                    6a:84:9e:48:fc:c5:11:42:dc:48:98:3b:42:23:dc:
                    4d:4d
                Exponent: 65537 (0x10001)
        X509v3 extensions:
            X509v3 Basic Constraints: 
                CA:FALSE
            X509v3 Subject Key Identifier: 
                92:1D:F7:F1:D0:A2:3C:97:C6:FB:66:87:02:E1:43:12:8F:7E:17:48
            X509v3 Authority Key Identifier: 
                keyid:17:92:83:4A:34:55:C0:04:EA:16:9E:7E:CA:61:0F:A3:1A:4A:22:9C
                DirName:/CN=yxs
                serial:D3:A8:8A:C4:A1:1E:7F:3B

            X509v3 Extended Key Usage: 
                TLS Web Client Authentication
            X509v3 Key Usage: 
                Digital Signature
    Signature Algorithm: ecdsa-with-SHA512
         30:64:02:30:4b:5a:5a:0c:ef:3b:22:38:54:8b:3c:e6:77:a5:
         64:1f:f8:69:87:ba:84:80:5d:b7:19:d4:a2:c6:bb:28:90:35:
         e6:be:b8:40:bd:27:d4:17:43:67:a7:33:02:58:bb:60:02:30:
         2f:1e:2f:6c:2d:07:fa:39:1f:cc:16:b4:32:87:80:6f:fa:3e:
         3a:90:e1:28:51:5d:1e:ee:1b:9a:9f:45:22:8d:9f:97:f9:9a:
         8d:96:a7:95:3e:d1:a7:b7:7f:c9:e4:d6
-----BEGIN CERTIFICATE-----
MIIC5zCCAm6gAwIBAgIQBqCJDVZa1vBPnW9tbHWk3TAKBggqhkjOPQQDBDAOMQww
CgYDVQQDDAN5eHMwHhcNMjIwNjIyMDMzNTE5WhcNMjQwOTI0MDMzNTE5WjBhMQsw
CQYDVQQGEwJDTDELMAkGA1UECAwCQ0wxCzAJBgNVBAcMAkNMMQswCQYDVQQKDAJD
TDELMAkGA1UECwwCQ0wxCzAJBgNVBAMMAkNMMREwDwYJKoZIhvcNAQkBFgJDTDCC
ASIwDQYJKoZIhvcNAQEBBQADggEPADCCAQoCggEBALTvD7VnDTywqcQic+3lDKqu
N30Ntvhw27qEFWD67TFombb9QYrS2Sye+dJZyx0nqt3V/7bQCb71lPz/SFOU7T8i
W0L30HGTW0fIdzIci0sjEfvgHK8bQw0EyX22XzuWHSLQypSpU0zMIq5vMeSnQY7b
BLD+fAiBinnpkR3UnZcIa5U581rK7lLtxz7jNol8jPOqAFwjvyyb1JKI8UckC0w+
Xpbyym+MjE8H9atBhC/DG8vlUqp3b4rGMAcmhTTXIi2ow+vwAnwkkU/F6/xjg9T3
gLKht590st8YQzuQTgUv6gZ6tDbPLYt/PWkPKzJWaoSeSPzFEULcSJg7QiPcTU0C
AwEAAaOBjzCBjDAJBgNVHRMEAjAAMB0GA1UdDgQWBBSSHffx0KI8l8b7ZocC4UMS
j34XSDA+BgNVHSMENzA1gBQXkoNKNFXABOoWnn7KYQ+jGkoinKESpBAwDjEMMAoG
A1UEAwwDeXhzggkA06iKxKEefzswEwYDVR0lBAwwCgYIKwYBBQUHAwIwCwYDVR0P
BAQDAgeAMAoGCCqGSM49BAMEA2cAMGQCMEtaWgzvOyI4VIs85nelZB/4aYe6hIBd
txnUosa7KJA15r64QL0n1BdDZ6czAli7YAIwLx4vbC0H+jkfzBa0MoeAb/o+OpDh
KFFdHu4bmp9FIo2fl/majZanlT7Rp7d/yeTW
-----END CERTIFICATE-----
