Certificate:
    Data:
        Version: 3 (0x2)
        Serial Number:
            0f:41:77:9a:64:d2:19:6c:54:5f:81:09:ce:9f:86:2b
        Signature Algorithm: ecdsa-with-SHA512
        Issuer: CN=yxs
        Validity
            Not Before: Jun 21 15:00:17 2022 GMT
            Not After : Sep 23 15:00:17 2024 GMT
        Subject: C=CH, O=PKU, CN=client1
        Subject Public Key Info:
            Public Key Algorithm: rsaEncryption
                RSA Public-Key: (2048 bit)
                Modulus:
                    00:a4:b0:dd:de:7e:32:9e:e4:05:9b:dd:1c:51:3a:
                    c9:4f:18:af:88:ae:bb:28:cc:39:cc:42:57:cd:6e:
                    4e:31:be:6f:87:bc:4c:8a:94:62:71:26:36:ae:1d:
                    b9:e8:9c:72:4e:66:88:27:29:5b:db:d5:3d:b2:c2:
                    93:40:dd:b6:fd:a5:84:24:b0:51:8f:28:4e:d0:5b:
                    19:81:2f:7c:3b:7e:4f:88:73:c9:ec:63:62:c8:57:
                    98:1e:05:4e:07:67:34:b1:4b:db:4b:63:8a:61:37:
                    ad:28:9d:bd:75:30:ad:71:c7:9f:50:49:29:54:8b:
                    7a:5d:73:ce:ff:a0:0c:30:4c:14:e1:a1:3e:da:bc:
                    00:a1:cd:5a:9c:71:f3:66:49:05:0d:23:ba:7b:54:
                    a2:13:a4:28:aa:59:80:ce:68:82:59:a1:56:a9:da:
                    46:a5:b2:c0:6a:17:47:fb:5a:c1:ff:b0:ae:ef:c7:
                    68:29:21:c3:ee:1a:2f:8a:25:46:50:4e:c2:2c:e6:
                    58:55:8c:80:d2:eb:4d:56:bf:49:9c:22:63:d4:52:
                    f9:e7:01:ed:36:6d:a4:83:93:2d:54:2f:7a:18:35:
                    d3:8a:51:52:0c:7a:a0:c3:66:67:58:a7:a6:14:fc:
                    a6:5e:d2:d5:5d:be:79:16:c3:a5:4c:13:01:14:9f:
                    6f:1f
                Exponent: 65537 (0x10001)
        X509v3 extensions:
            X509v3 Basic Constraints: 
                CA:FALSE
            X509v3 Subject Key Identifier: 
                50:0C:00:98:D9:07:B8:98:D4:C1:66:F4:F8:7A:C9:DB:FF:87:39:05
            X509v3 Authority Key Identifier: 
                keyid:17:92:83:4A:34:55:C0:04:EA:16:9E:7E:CA:61:0F:A3:1A:4A:22:9C
                DirName:/CN=yxs
                serial:D3:A8:8A:C4:A1:1E:7F:3B

            X509v3 Extended Key Usage: 
                TLS Web Client Authentication
            X509v3 Key Usage: 
                Digital Signature
    Signature Algorithm: ecdsa-with-SHA512
         30:65:02:30:46:41:78:7a:8c:77:9b:8f:5d:81:af:b8:25:fa:
         24:fb:0e:72:48:a6:f3:60:c1:aa:a4:f2:08:40:94:e5:e6:96:
         cf:e7:d4:4a:4f:37:af:a1:73:da:76:9f:d7:36:9c:e4:02:31:
         00:85:6a:8d:b3:d4:3a:1c:94:44:98:fb:68:8c:e0:c4:96:55:
         18:31:04:85:35:65:6f:9d:53:ae:00:c1:55:d9:90:d0:7c:39:
         f2:44:1e:80:d8:3b:a6:a1:19:75:9a:6b:07
-----BEGIN CERTIFICATE-----
MIICtDCCAjqgAwIBAgIQD0F3mmTSGWxUX4EJzp+GKzAKBggqhkjOPQQDBDAOMQww
CgYDVQQDDAN5eHMwHhcNMjIwNjIxMTUwMDE3WhcNMjQwOTIzMTUwMDE3WjAtMQsw
CQYDVQQGEwJDSDEMMAoGA1UECgwDUEtVMRAwDgYDVQQDDAdjbGllbnQxMIIBIjAN
BgkqhkiG9w0BAQEFAAOCAQ8AMIIBCgKCAQEApLDd3n4ynuQFm90cUTrJTxiviK67
KMw5zEJXzW5OMb5vh7xMipRicSY2rh256JxyTmaIJylb29U9ssKTQN22/aWEJLBR
jyhO0FsZgS98O35PiHPJ7GNiyFeYHgVOB2c0sUvbS2OKYTetKJ29dTCtccefUEkp
VIt6XXPO/6AMMEwU4aE+2rwAoc1anHHzZkkFDSO6e1SiE6QoqlmAzmiCWaFWqdpG
pbLAahdH+1rB/7Cu78doKSHD7hoviiVGUE7CLOZYVYyA0utNVr9JnCJj1FL55wHt
Nm2kg5MtVC96GDXTilFSDHqgw2ZnWKemFPymXtLVXb55FsOlTBMBFJ9vHwIDAQAB
o4GPMIGMMAkGA1UdEwQCMAAwHQYDVR0OBBYEFFAMAJjZB7iY1MFm9Ph6ydv/hzkF
MD4GA1UdIwQ3MDWAFBeSg0o0VcAE6haefsphD6MaSiKcoRKkEDAOMQwwCgYDVQQD
DAN5eHOCCQDTqIrEoR5/OzATBgNVHSUEDDAKBggrBgEFBQcDAjALBgNVHQ8EBAMC
B4AwCgYIKoZIzj0EAwQDaAAwZQIwRkF4eox3m49dga+4Jfok+w5ySKbzYMGqpPII
QJTl5pbP59RKTzevoXPadp/XNpzkAjEAhWqNs9Q6HJREmPtojODEllUYMQSFNWVv
nVOuAMFV2ZDQfDnyRB6A2DumoRl1mmsH
-----END CERTIFICATE-----
