Certificate:
    Data:
        Version: 3 (0x2)
        Serial Number:
            1b:35:a5:6e:fa:ad:d2:fd:c1:13:83:04:5b:74:9f:cf
    Signature Algorithm: ecdsa-with-SHA512
        Issuer: CN=yxs
        Validity
            Not Before: Jun 21 05:55:24 2022 GMT
            Not After : Sep 23 05:55:24 2024 GMT
        Subject: C=CN, ST=GD, L=SZ, O=PKUSZ, CN=client
        Subject Public Key Info:
            Public Key Algorithm: rsaEncryption
                Public-Key: (1024 bit)
                Modulus:
                    00:bf:5d:ac:73:c5:7f:20:c3:0f:9e:02:e5:14:7a:
                    ee:38:66:7f:30:ac:08:b0:40:b3:dc:e1:ba:36:9c:
                    70:7a:94:68:3b:17:89:e8:4f:ad:43:21:9c:4a:20:
                    29:16:18:63:d2:30:2a:cb:f7:a3:2b:c6:e6:89:bf:
                    d7:16:6a:68:91:0f:d1:61:e2:aa:2a:cd:99:89:92:
                    44:d9:65:48:f5:d5:c7:0b:f7:97:b7:4d:00:18:15:
                    6d:ca:5a:9a:15:45:18:64:61:9b:1a:a4:29:d3:5f:
                    79:2f:ca:05:b5:c4:6a:b7:58:3c:40:95:c3:02:6f:
                    7d:48:20:0c:b4:f4:a5:55:8b
                Exponent: 65537 (0x10001)
        X509v3 extensions:
            X509v3 Basic Constraints: 
                CA:FALSE
            X509v3 Subject Key Identifier: 
                97:D0:3A:13:EB:3F:20:4E:4F:32:30:EC:F0:A6:1C:4F:E6:7D:C1:E7
            X509v3 Authority Key Identifier: 
                keyid:17:92:83:4A:34:55:C0:04:EA:16:9E:7E:CA:61:0F:A3:1A:4A:22:9C
                DirName:/CN=yxs
                serial:D3:A8:8A:C4:A1:1E:7F:3B

            X509v3 Extended Key Usage: 
                TLS Web Client Authentication
            X509v3 Key Usage: 
                Digital Signature
    Signature Algorithm: ecdsa-with-SHA512
         30:65:02:31:00:cd:19:f1:bd:1c:bd:65:67:e2:52:1d:92:65:
         aa:81:e2:dc:f6:72:95:7a:3b:83:ca:12:a8:79:00:b6:92:b8:
         e3:66:64:9b:fd:16:72:5a:d0:67:ca:fc:e4:cf:72:5f:bd:02:
         30:23:20:39:06:80:a4:79:46:ae:c8:b3:0a:05:4c:fd:14:65:
         09:56:db:9d:e0:ac:49:52:68:4d:3c:7a:d0:2c:89:f0:19:a2:
         ae:f4:79:67:86:84:b5:19:28:fb:b6:a9:df
-----BEGIN CERTIFICATE-----
MIICSzCCAdGgAwIBAgIQGzWlbvqt0v3BE4MEW3SfzzAKBggqhkjOPQQDBDAOMQww
CgYDVQQDDAN5eHMwHhcNMjIwNjIxMDU1NTI0WhcNMjQwOTIzMDU1NTI0WjBIMQsw
CQYDVQQGEwJDTjELMAkGA1UECAwCR0QxCzAJBgNVBAcMAlNaMQ4wDAYDVQQKDAVQ
S1VTWjEPMA0GA1UEAwwGY2xpZW50MIGfMA0GCSqGSIb3DQEBAQUAA4GNADCBiQKB
gQC/XaxzxX8gww+eAuUUeu44Zn8wrAiwQLPc4bo2nHB6lGg7F4noT61DIZxKICkW
GGPSMCrL96MrxuaJv9cWamiRD9Fh4qoqzZmJkkTZZUj11ccL95e3TQAYFW3KWpoV
RRhkYZsapCnTX3kvygW1xGq3WDxAlcMCb31IIAy09KVViwIDAQABo4GPMIGMMAkG
A1UdEwQCMAAwHQYDVR0OBBYEFJfQOhPrPyBOTzIw7PCmHE/mfcHnMD4GA1UdIwQ3
MDWAFBeSg0o0VcAE6haefsphD6MaSiKcoRKkEDAOMQwwCgYDVQQDDAN5eHOCCQDT
qIrEoR5/OzATBgNVHSUEDDAKBggrBgEFBQcDAjALBgNVHQ8EBAMCB4AwCgYIKoZI
zj0EAwQDaAAwZQIxAM0Z8b0cvWVn4lIdkmWqgeLc9nKVejuDyhKoeQC2krjjZmSb
/RZyWtBnyvzkz3JfvQIwIyA5BoCkeUauyLMKBUz9FGUJVtud4KxJUmhNPHrQLInw
GaKu9HlnhoS1GSj7tqnf
-----END CERTIFICATE-----
