Certificate:
    Data:
        Version: 3 (0x2)
        Serial Number:
            1c:5b:25:9d:25:4d:8c:1c:75:15:53:d6:dd:c0:66:a3
        Signature Algorithm: ecdsa-with-SHA512
        Issuer: CN=yxs
        Validity
            Not Before: Jun 22 02:40:24 2022 GMT
            Not After : Sep 24 02:40:24 2024 GMT
        Subject: C=CN, ST=GD, L=SZ, O=PKU, OU=SECE, CN=client2/emailAddress=client2@pku.edu.cn
        Subject Public Key Info:
            Public Key Algorithm: rsaEncryption
                RSA Public-Key: (2048 bit)
                Modulus:
                    00:b6:e3:39:d0:8c:f0:4b:10:2f:56:50:6d:a0:41:
                    11:df:c2:b9:a2:ad:d1:b2:c2:f9:e7:6e:fd:bb:e4:
                    92:7c:64:bc:fd:bb:bc:a7:f8:8c:5c:45:f1:4f:0c:
                    a1:66:a2:ce:b9:61:57:a2:65:91:51:03:e8:3d:c7:
                    1c:83:c7:73:8c:e8:15:a4:d2:1c:bd:3e:87:c6:d7:
                    44:c3:36:cb:df:18:90:84:74:49:82:23:74:61:f8:
                    15:78:77:1d:48:da:a8:3d:54:04:ad:9a:09:17:06:
                    cd:8b:52:0e:c9:52:d1:27:56:d2:e7:d2:0d:4e:5f:
                    b5:79:78:ae:d4:d9:b3:2b:b4:8b:ec:ff:94:35:93:
                    cb:70:23:07:93:8b:37:04:69:ef:6f:a5:d4:ae:c9:
                    d6:fb:1d:30:11:41:e4:9a:82:c8:9a:2b:48:c3:b4:
                    59:ca:8d:bd:2c:73:8d:ea:53:2e:1c:f1:3d:28:1c:
                    bf:4b:61:c7:49:75:c0:52:b5:e6:d8:69:0c:54:bd:
                    ef:73:ef:ac:fc:3f:bd:f2:08:53:00:a8:c4:e2:01:
                    bc:93:be:b4:eb:0e:e8:19:8d:6c:ca:60:21:2b:52:
                    94:5e:fb:80:fc:8c:ec:31:40:96:a9:54:a5:17:0e:
                    60:8b:bc:ef:55:29:2f:b7:3d:a6:df:af:9a:43:ac:
                    b0:6d
                Exponent: 65537 (0x10001)
        X509v3 extensions:
            X509v3 Basic Constraints: 
                CA:FALSE
            X509v3 Subject Key Identifier: 
                62:E2:2D:44:DB:B7:DB:A2:8C:5D:D3:D5:47:51:4A:CA:E0:F2:D4:A6
            X509v3 Authority Key Identifier: 
                keyid:17:92:83:4A:34:55:C0:04:EA:16:9E:7E:CA:61:0F:A3:1A:4A:22:9C
                DirName:/CN=yxs
                serial:D3:A8:8A:C4:A1:1E:7F:3B

            X509v3 Extended Key Usage: 
                TLS Web Client Authentication
            X509v3 Key Usage: 
                Digital Signature
    Signature Algorithm: ecdsa-with-SHA512
         30:65:02:30:1d:66:18:e7:31:d9:54:b7:7e:87:3d:41:25:27:
         b4:47:55:9d:4c:0a:e9:09:3d:30:91:69:64:eb:38:fe:80:73:
         98:67:b6:ab:3e:2f:bc:ac:de:e7:5c:06:19:ab:bf:0b:02:31:
         00:fd:99:01:6f:cf:1f:6d:a7:bc:c4:a5:0e:40:70:9b:82:4a:
         1d:dc:dc:fa:44:07:5f:aa:25:28:4a:bb:a0:74:72:58:fb:d5:
         4b:35:e3:91:3d:86:e9:6a:93:a0:c4:e5:dd
-----BEGIN CERTIFICATE-----
MIIDADCCAoagAwIBAgIQHFslnSVNjBx1FVPW3cBmozAKBggqhkjOPQQDBDAOMQww
CgYDVQQDDAN5eHMwHhcNMjIwNjIyMDI0MDI0WhcNMjQwOTI0MDI0MDI0WjB5MQsw
CQYDVQQGEwJDTjELMAkGA1UECAwCR0QxCzAJBgNVBAcMAlNaMQwwCgYDVQQKDANQ
S1UxDTALBgNVBAsMBFNFQ0UxEDAOBgNVBAMMB2NsaWVudDIxITAfBgkqhkiG9w0B
CQEWEmNsaWVudDJAcGt1LmVkdS5jbjCCASIwDQYJKoZIhvcNAQEBBQADggEPADCC
AQoCggEBALbjOdCM8EsQL1ZQbaBBEd/CuaKt0bLC+edu/bvkknxkvP27vKf4jFxF
8U8MoWaizrlhV6JlkVED6D3HHIPHc4zoFaTSHL0+h8bXRMM2y98YkIR0SYIjdGH4
FXh3HUjaqD1UBK2aCRcGzYtSDslS0SdW0ufSDU5ftXl4rtTZsyu0i+z/lDWTy3Aj
B5OLNwRp72+l1K7J1vsdMBFB5JqCyJorSMO0WcqNvSxzjepTLhzxPSgcv0thx0l1
wFK15thpDFS973PvrPw/vfIIUwCoxOIBvJO+tOsO6BmNbMpgIStSlF77gPyM7DFA
lqlUpRcOYIu871UpL7c9pt+vmkOssG0CAwEAAaOBjzCBjDAJBgNVHRMEAjAAMB0G
A1UdDgQWBBRi4i1E27fbooxd09VHUUrK4PLUpjA+BgNVHSMENzA1gBQXkoNKNFXA
BOoWnn7KYQ+jGkoinKESpBAwDjEMMAoGA1UEAwwDeXhzggkA06iKxKEefzswEwYD
VR0lBAwwCgYIKwYBBQUHAwIwCwYDVR0PBAQDAgeAMAoGCCqGSM49BAMEA2gAMGUC
MB1mGOcx2VS3foc9QSUntEdVnUwK6Qk9MJFpZOs4/oBzmGe2qz4vvKze51wGGau/
CwIxAP2ZAW/PH22nvMSlDkBwm4JKHdzc+kQHX6olKEq7oHRyWPvVSzXjkT2G6WqT
oMTl3Q==
-----END CERTIFICATE-----
