Certificate:
    Data:
        Version: 3 (0x2)
        Serial Number:
            20:f5:39:83:8e:82:6b:81:b3:63:60:0b:c3:41:f6:2c
        Signature Algorithm: ecdsa-with-SHA512
        Issuer: CN=yxs
        Validity
            Not Before: Jun 21 19:51:02 2022 GMT
            Not After : Sep 23 19:51:02 2024 GMT
        Subject: C=cn, ST=hu, L=wh, O=pku, OU=sece, CN=client1/emailAddress=123@qq.com
        Subject Public Key Info:
            Public Key Algorithm: rsaEncryption
                RSA Public-Key: (2048 bit)
                Modulus:
                    00:a4:b0:dd:de:7e:32:9e:e4:05:9b:dd:1c:51:3a:
                    c9:4f:18:af:88:ae:bb:28:cc:39:cc:42:57:cd:6e:
                    4e:31:be:6f:87:bc:4c:8a:94:62:71:26:36:ae:1d:
                    b9:e8:9c:72:4e:66:88:27:29:5b:db:d5:3d:b2:c2:
                    93:40:dd:b6:fd:a5:84:24:b0:51:8f:28:4e:d0:5b:
                    19:81:2f:7c:3b:7e:4f:88:73:c9:ec:63:62:c8:57:
                    98:1e:05:4e:07:67:34:b1:4b:db:4b:63:8a:61:37:
                    ad:28:9d:bd:75:30:ad:71:c7:9f:50:49:29:54:8b:
                    7a:5d:73:ce:ff:a0:0c:30:4c:14:e1:a1:3e:da:bc:
                    00:a1:cd:5a:9c:71:f3:66:49:05:0d:23:ba:7b:54:
                    a2:13:a4:28:aa:59:80:ce:68:82:59:a1:56:a9:da:
                    46:a5:b2:c0:6a:17:47:fb:5a:c1:ff:b0:ae:ef:c7:
                    68:29:21:c3:ee:1a:2f:8a:25:46:50:4e:c2:2c:e6:
                    58:55:8c:80:d2:eb:4d:56:bf:49:9c:22:63:d4:52:
                    f9:e7:01:ed:36:6d:a4:83:93:2d:54:2f:7a:18:35:
                    d3:8a:51:52:0c:7a:a0:c3:66:67:58:a7:a6:14:fc:
                    a6:5e:d2:d5:5d:be:79:16:c3:a5:4c:13:01:14:9f:
                    6f:1f
                Exponent: 65537 (0x10001)
        X509v3 extensions:
            X509v3 Basic Constraints: 
                CA:FALSE
            X509v3 Subject Key Identifier: 
                50:0C:00:98:D9:07:B8:98:D4:C1:66:F4:F8:7A:C9:DB:FF:87:39:05
            X509v3 Authority Key Identifier: 
                keyid:17:92:83:4A:34:55:C0:04:EA:16:9E:7E:CA:61:0F:A3:1A:4A:22:9C
                DirName:/CN=yxs
                serial:D3:A8:8A:C4:A1:1E:7F:3B

            X509v3 Extended Key Usage: 
                TLS Web Client Authentication
            X509v3 Key Usage: 
                Digital Signature
    Signature Algorithm: ecdsa-with-SHA512
         30:65:02:31:00:8c:0f:e9:8f:5c:ca:69:23:39:da:0e:df:e5:
         30:d2:e2:0f:69:02:b3:70:48:4d:76:0d:d7:9c:fd:d3:d6:e7:
         52:b9:87:f3:88:3c:99:c7:a1:bb:e5:6d:3a:14:e7:75:a0:02:
         30:69:b8:7a:18:36:b8:c3:ab:63:0d:85:8f:c1:d1:25:fb:7b:
         00:6d:0b:c0:af:6c:52:64:7f:d8:54:65:8f:93:e7:95:2e:c1:
         e7:8a:0e:21:1e:dc:2a:0d:86:cc:00:fc:8c
-----BEGIN CERTIFICATE-----
MIIC+DCCAn6gAwIBAgIQIPU5g46Ca4GzY2ALw0H2LDAKBggqhkjOPQQDBDAOMQww
CgYDVQQDDAN5eHMwHhcNMjIwNjIxMTk1MTAyWhcNMjQwOTIzMTk1MTAyWjBxMQsw
CQYDVQQGEwJjbjELMAkGA1UECAwCaHUxCzAJBgNVBAcMAndoMQwwCgYDVQQKDANw
a3UxDTALBgNVBAsMBHNlY2UxEDAOBgNVBAMMB2NsaWVudDExGTAXBgkqhkiG9w0B
CQEWCjEyM0BxcS5jb20wggEiMA0GCSqGSIb3DQEBAQUAA4IBDwAwggEKAoIBAQCk
sN3efjKe5AWb3RxROslPGK+IrrsozDnMQlfNbk4xvm+HvEyKlGJxJjauHbnonHJO
ZognKVvb1T2ywpNA3bb9pYQksFGPKE7QWxmBL3w7fk+Ic8nsY2LIV5geBU4HZzSx
S9tLY4phN60onb11MK1xx59QSSlUi3pdc87/oAwwTBThoT7avAChzVqccfNmSQUN
I7p7VKITpCiqWYDOaIJZoVap2kalssBqF0f7WsH/sK7vx2gpIcPuGi+KJUZQTsIs
5lhVjIDS601Wv0mcImPUUvnnAe02baSDky1UL3oYNdOKUVIMeqDDZmdYp6YU/KZe
0tVdvnkWw6VMEwEUn28fAgMBAAGjgY8wgYwwCQYDVR0TBAIwADAdBgNVHQ4EFgQU
UAwAmNkHuJjUwWb0+HrJ2/+HOQUwPgYDVR0jBDcwNYAUF5KDSjRVwATqFp5+ymEP
oxpKIpyhEqQQMA4xDDAKBgNVBAMMA3l4c4IJANOoisShHn87MBMGA1UdJQQMMAoG
CCsGAQUFBwMCMAsGA1UdDwQEAwIHgDAKBggqhkjOPQQDBANoADBlAjEAjA/pj1zK
aSM52g7f5TDS4g9pArNwSE12Ddec/dPW51K5h/OIPJnHobvlbToU53WgAjBpuHoY
NrjDq2MNhY/B0SX7ewBtC8CvbFJkf9hUZY+T55UuweeKDiEe3CoNhswA/Iw=
-----END CERTIFICATE-----
