Certificate:
    Data:
        Version: 3 (0x2)
        Serial Number:
            24:d7:66:a3:8c:75:10:08:8e:b9:5a:30:33:da:c6:47
        Signature Algorithm: ecdsa-with-SHA512
        Issuer: CN=yxs
        Validity
            Not Before: Jun 21 20:31:11 2022 GMT
            Not After : Sep 23 20:31:11 2024 GMT
        Subject: C=CH, O=PKU, CN=client1
        Subject Public Key Info:
            Public Key Algorithm: rsaEncryption
                RSA Public-Key: (2048 bit)
                Modulus:
                    00:a4:b0:dd:de:7e:32:9e:e4:05:9b:dd:1c:51:3a:
                    c9:4f:18:af:88:ae:bb:28:cc:39:cc:42:57:cd:6e:
                    4e:31:be:6f:87:bc:4c:8a:94:62:71:26:36:ae:1d:
                    b9:e8:9c:72:4e:66:88:27:29:5b:db:d5:3d:b2:c2:
                    93:40:dd:b6:fd:a5:84:24:b0:51:8f:28:4e:d0:5b:
                    19:81:2f:7c:3b:7e:4f:88:73:c9:ec:63:62:c8:57:
                    98:1e:05:4e:07:67:34:b1:4b:db:4b:63:8a:61:37:
                    ad:28:9d:bd:75:30:ad:71:c7:9f:50:49:29:54:8b:
                    7a:5d:73:ce:ff:a0:0c:30:4c:14:e1:a1:3e:da:bc:
                    00:a1:cd:5a:9c:71:f3:66:49:05:0d:23:ba:7b:54:
                    a2:13:a4:28:aa:59:80:ce:68:82:59:a1:56:a9:da:
                    46:a5:b2:c0:6a:17:47:fb:5a:c1:ff:b0:ae:ef:c7:
                    68:29:21:c3:ee:1a:2f:8a:25:46:50:4e:c2:2c:e6:
                    58:55:8c:80:d2:eb:4d:56:bf:49:9c:22:63:d4:52:
                    f9:e7:01:ed:36:6d:a4:83:93:2d:54:2f:7a:18:35:
                    d3:8a:51:52:0c:7a:a0:c3:66:67:58:a7:a6:14:fc:
                    a6:5e:d2:d5:5d:be:79:16:c3:a5:4c:13:01:14:9f:
                    6f:1f
                Exponent: 65537 (0x10001)
        X509v3 extensions:
            X509v3 Basic Constraints: 
                CA:FALSE
            X509v3 Subject Key Identifier: 
                50:0C:00:98:D9:07:B8:98:D4:C1:66:F4:F8:7A:C9:DB:FF:87:39:05
            X509v3 Authority Key Identifier: 
                keyid:17:92:83:4A:34:55:C0:04:EA:16:9E:7E:CA:61:0F:A3:1A:4A:22:9C
                DirName:/CN=yxs
                serial:D3:A8:8A:C4:A1:1E:7F:3B

            X509v3 Extended Key Usage: 
                TLS Web Client Authentication
            X509v3 Key Usage: 
                Digital Signature
    Signature Algorithm: ecdsa-with-SHA512
         30:65:02:30:40:75:54:cc:25:42:86:bd:f4:61:aa:e2:f3:4f:
         1a:96:80:2f:c7:4b:0e:da:a9:fb:1f:70:1d:7d:b6:f9:7e:4a:
         c6:34:ea:b3:21:81:84:b6:0f:16:b6:0f:2d:ea:0c:1e:02:31:
         00:d5:06:36:b3:12:14:ca:57:7c:5b:78:38:e8:7f:8f:57:86:
         68:92:9c:88:92:14:9f:92:29:99:cf:86:a1:df:1d:b4:66:44:
         c6:99:b2:a9:03:2a:27:6e:ad:00:78:6a:99
-----BEGIN CERTIFICATE-----
MIICtDCCAjqgAwIBAgIQJNdmo4x1EAiOuVowM9rGRzAKBggqhkjOPQQDBDAOMQww
CgYDVQQDDAN5eHMwHhcNMjIwNjIxMjAzMTExWhcNMjQwOTIzMjAzMTExWjAtMQsw
CQYDVQQGEwJDSDEMMAoGA1UECgwDUEtVMRAwDgYDVQQDDAdjbGllbnQxMIIBIjAN
BgkqhkiG9w0BAQEFAAOCAQ8AMIIBCgKCAQEApLDd3n4ynuQFm90cUTrJTxiviK67
KMw5zEJXzW5OMb5vh7xMipRicSY2rh256JxyTmaIJylb29U9ssKTQN22/aWEJLBR
jyhO0FsZgS98O35PiHPJ7GNiyFeYHgVOB2c0sUvbS2OKYTetKJ29dTCtccefUEkp
VIt6XXPO/6AMMEwU4aE+2rwAoc1anHHzZkkFDSO6e1SiE6QoqlmAzmiCWaFWqdpG
pbLAahdH+1rB/7Cu78doKSHD7hoviiVGUE7CLOZYVYyA0utNVr9JnCJj1FL55wHt
Nm2kg5MtVC96GDXTilFSDHqgw2ZnWKemFPymXtLVXb55FsOlTBMBFJ9vHwIDAQAB
o4GPMIGMMAkGA1UdEwQCMAAwHQYDVR0OBBYEFFAMAJjZB7iY1MFm9Ph6ydv/hzkF
MD4GA1UdIwQ3MDWAFBeSg0o0VcAE6haefsphD6MaSiKcoRKkEDAOMQwwCgYDVQQD
DAN5eHOCCQDTqIrEoR5/OzATBgNVHSUEDDAKBggrBgEFBQcDAjALBgNVHQ8EBAMC
B4AwCgYIKoZIzj0EAwQDaAAwZQIwQHVUzCVChr30Yari808aloAvx0sO2qn7H3Ad
fbb5fkrGNOqzIYGEtg8Wtg8t6gweAjEA1QY2sxIUyld8W3g46H+PV4ZokpyIkhSf
kimZz4ah3x20ZkTGmbKpAyonbq0AeGqZ
-----END CERTIFICATE-----
