Certificate:
    Data:
        Version: 3 (0x2)
        Serial Number:
            27:16:1a:e5:21:28:d6:e1:34:fc:dd:30:d1:7d:90:68
        Signature Algorithm: ecdsa-with-SHA512
        Issuer: CN=yxs
        Validity
            Not Before: Jun 22 02:56:45 2022 GMT
            Not After : Sep 24 02:56:45 2024 GMT
        Subject: C=CN, ST=GD, L=SZ, O=PKU, OU=SECE, CN=client1/emailAddress=client1@pku.edu.cn
        Subject Public Key Info:
            Public Key Algorithm: rsaEncryption
                RSA Public-Key: (2048 bit)
                Modulus:
                    00:97:7f:7a:55:84:aa:3a:ae:e4:e1:a5:55:f5:8b:
                    a7:92:37:af:8b:9f:1a:5d:b9:83:3b:b2:a5:5f:53:
                    98:31:eb:71:b3:27:bc:3f:7a:9d:12:c6:91:4e:99:
                    33:c1:2c:b5:0c:e4:d0:af:56:e1:59:50:af:a5:2a:
                    96:76:97:2e:dd:ac:e1:da:d6:17:f5:10:d0:69:9c:
                    29:12:d3:01:24:fa:4e:0b:f5:41:70:b2:2b:75:ec:
                    e8:f9:c9:96:0e:d9:b2:05:cd:1b:81:dc:25:0e:e3:
                    80:ea:69:a2:83:68:d5:1f:64:48:05:f4:51:06:0a:
                    e5:b4:9a:90:47:24:91:66:d6:29:e8:3d:95:3e:ab:
                    ab:e5:b6:43:37:e8:b4:88:11:4f:6a:c0:70:a3:73:
                    8a:51:25:f5:b7:c2:6f:a9:20:27:18:87:e5:54:84:
                    1e:83:2a:de:bb:06:f7:3b:03:8b:4a:73:a3:88:d8:
                    8b:6d:b3:6f:f9:06:8a:db:96:2d:94:fd:a3:32:13:
                    e3:09:e8:ba:ea:fa:c4:ef:1b:96:6d:5e:bb:62:bc:
                    e3:0a:e3:38:08:a9:9a:b7:fd:ae:d1:82:5d:cd:5a:
                    1b:ff:68:88:90:dd:72:ab:30:aa:53:29:c1:17:b8:
                    eb:b9:8f:96:a8:db:7a:28:1c:6a:71:4f:96:5c:46:
                    f0:4b
                Exponent: 65537 (0x10001)
        X509v3 extensions:
            X509v3 Basic Constraints: 
                CA:FALSE
            X509v3 Subject Key Identifier: 
                2C:90:37:76:45:84:95:9E:5A:4E:86:C9:81:E3:4E:5F:C9:60:90:58
            X509v3 Authority Key Identifier: 
                keyid:17:92:83:4A:34:55:C0:04:EA:16:9E:7E:CA:61:0F:A3:1A:4A:22:9C
                DirName:/CN=yxs
                serial:D3:A8:8A:C4:A1:1E:7F:3B

            X509v3 Extended Key Usage: 
                TLS Web Client Authentication
            X509v3 Key Usage: 
                Digital Signature
    Signature Algorithm: ecdsa-with-SHA512
         30:65:02:31:00:c4:1f:27:ae:b6:6a:7c:ed:87:bd:1e:18:71:
         95:68:81:f8:18:09:88:57:2c:a2:50:06:ee:f2:7c:c1:61:c1:
         3d:0c:5c:a5:a3:6f:6a:ce:df:0d:fd:c3:09:e1:d5:21:9e:02:
         30:09:52:2d:aa:84:16:d1:59:a9:60:87:97:43:4a:66:47:f8:
         8e:b2:f8:c2:c0:38:64:0d:32:cc:4b:cf:0f:e0:60:4b:c0:66:
         00:79:d1:ea:82:5f:71:ee:ec:8b:59:85:25
-----BEGIN CERTIFICATE-----
MIIDADCCAoagAwIBAgIQJxYa5SEo1uE0/N0w0X2QaDAKBggqhkjOPQQDBDAOMQww
CgYDVQQDDAN5eHMwHhcNMjIwNjIyMDI1NjQ1WhcNMjQwOTI0MDI1NjQ1WjB5MQsw
CQYDVQQGEwJDTjELMAkGA1UECAwCR0QxCzAJBgNVBAcMAlNaMQwwCgYDVQQKDANQ
S1UxDTALBgNVBAsMBFNFQ0UxEDAOBgNVBAMMB2NsaWVudDExITAfBgkqhkiG9w0B
CQEWEmNsaWVudDFAcGt1LmVkdS5jbjCCASIwDQYJKoZIhvcNAQEBBQADggEPADCC
AQoCggEBAJd/elWEqjqu5OGlVfWLp5I3r4ufGl25gzuypV9TmDHrcbMnvD96nRLG
kU6ZM8EstQzk0K9W4VlQr6UqlnaXLt2s4drWF/UQ0GmcKRLTAST6Tgv1QXCyK3Xs
6PnJlg7ZsgXNG4HcJQ7jgOppooNo1R9kSAX0UQYK5bSakEckkWbWKeg9lT6rq+W2
QzfotIgRT2rAcKNzilEl9bfCb6kgJxiH5VSEHoMq3rsG9zsDi0pzo4jYi22zb/kG
ituWLZT9ozIT4wnouur6xO8blm1eu2K84wrjOAipmrf9rtGCXc1aG/9oiJDdcqsw
qlMpwRe467mPlqjbeigcanFPllxG8EsCAwEAAaOBjzCBjDAJBgNVHRMEAjAAMB0G
A1UdDgQWBBQskDd2RYSVnlpOhsmB405fyWCQWDA+BgNVHSMENzA1gBQXkoNKNFXA
BOoWnn7KYQ+jGkoinKESpBAwDjEMMAoGA1UEAwwDeXhzggkA06iKxKEefzswEwYD
VR0lBAwwCgYIKwYBBQUHAwIwCwYDVR0PBAQDAgeAMAoGCCqGSM49BAMEA2gAMGUC
MQDEHyeutmp87Ye9HhhxlWiB+BgJiFcsolAG7vJ8wWHBPQxcpaNvas7fDf3DCeHV
IZ4CMAlSLaqEFtFZqWCHl0NKZkf4jrL4wsA4ZA0yzEvPD+BgS8BmAHnR6oJfce7s
i1mFJQ==
-----END CERTIFICATE-----
