Certificate:
    Data:
        Version: 3 (0x2)
        Serial Number:
            27:ff:10:f0:82:db:c9:79:bf:70:ec:06:0a:82:18:4c
        Signature Algorithm: ecdsa-with-SHA512
        Issuer: CN=yxs
        Validity
            Not Before: Jun 22 03:43:51 2022 GMT
            Not After : Sep 24 03:43:51 2024 GMT
        Subject: C=CL, ST=CL, L=CL, O=CL, OU=CL, CN=CL/emailAddress=CL
        Subject Public Key Info:
            Public Key Algorithm: rsaEncryption
                RSA Public-Key: (2048 bit)
                Modulus:
                    00:9d:56:e8:0e:84:d3:9a:7b:65:26:3f:1a:64:02:
                    e7:15:46:7d:36:ef:17:1e:81:f1:24:b0:16:4b:1e:
                    88:9e:1d:4b:24:9c:36:0c:89:fb:ea:39:b8:f8:f4:
                    29:82:ec:fc:17:99:cb:15:81:a7:5e:ba:aa:06:9b:
                    09:89:79:63:ea:a3:51:24:cf:9d:5f:5f:c5:e7:8f:
                    70:6e:8e:56:8b:a1:04:f9:62:78:eb:ec:4b:c2:a9:
                    ff:88:05:94:24:8e:9d:05:bb:a7:8c:a2:a6:bf:58:
                    41:e4:ca:01:52:9c:d9:c6:56:d7:12:5c:e8:bb:73:
                    97:3a:44:e6:3d:6e:d2:3d:da:60:2f:10:9d:d1:26:
                    ee:e8:87:d1:43:04:7c:74:78:d0:5b:88:d6:7d:45:
                    8f:9c:4a:ae:19:6b:43:8f:6d:85:35:72:49:01:70:
                    db:71:af:62:2b:f2:87:d4:58:ce:55:dc:22:74:f7:
                    7f:ce:9f:c7:c4:23:ea:18:2a:55:e7:79:23:a0:ce:
                    d9:18:36:25:3d:22:f3:5b:cb:5f:f0:d9:bf:bb:70:
                    bb:4f:2f:cd:9d:50:a8:ba:2f:87:3b:64:2d:3f:de:
                    ed:66:90:6c:01:cf:06:f4:47:4f:b7:8d:7e:83:2c:
                    79:4d:b2:ba:6e:dc:50:7e:c6:7e:77:a9:93:60:4e:
                    e6:23
                Exponent: 65537 (0x10001)
        X509v3 extensions:
            X509v3 Basic Constraints: 
                CA:FALSE
            X509v3 Subject Key Identifier: 
                62:6D:A6:6D:B5:67:11:F4:56:77:DC:5D:F4:A9:3E:42:DC:A6:87:8B
            X509v3 Authority Key Identifier: 
                keyid:17:92:83:4A:34:55:C0:04:EA:16:9E:7E:CA:61:0F:A3:1A:4A:22:9C
                DirName:/CN=yxs
                serial:D3:A8:8A:C4:A1:1E:7F:3B

            X509v3 Extended Key Usage: 
                TLS Web Client Authentication
            X509v3 Key Usage: 
                Digital Signature
    Signature Algorithm: ecdsa-with-SHA512
         30:65:02:31:00:f0:21:f4:b4:40:62:bc:0a:8e:d2:ec:13:b3:
         77:9f:5e:52:34:2a:bc:75:f2:8a:0d:05:d6:2d:fe:99:d2:56:
         53:ab:01:31:85:94:bd:d5:26:23:2c:c0:c3:ce:5c:d0:ec:02:
         30:61:53:1f:2b:27:13:d1:1a:88:ed:a1:03:4b:44:38:56:ba:
         ff:be:08:20:43:33:cb:6d:8f:0e:e7:77:12:10:d8:e2:96:97:
         b1:d2:c4:2a:8f:0f:59:77:40:63:a0:cd:19
-----BEGIN CERTIFICATE-----
MIIC6DCCAm6gAwIBAgIQJ/8Q8ILbyXm/cOwGCoIYTDAKBggqhkjOPQQDBDAOMQww
CgYDVQQDDAN5eHMwHhcNMjIwNjIyMDM0MzUxWhcNMjQwOTI0MDM0MzUxWjBhMQsw
CQYDVQQGEwJDTDELMAkGA1UECAwCQ0wxCzAJBgNVBAcMAkNMMQswCQYDVQQKDAJD
TDELMAkGA1UECwwCQ0wxCzAJBgNVBAMMAkNMMREwDwYJKoZIhvcNAQkBFgJDTDCC
ASIwDQYJKoZIhvcNAQEBBQADggEPADCCAQoCggEBAJ1W6A6E05p7ZSY/GmQC5xVG
fTbvFx6B8SSwFkseiJ4dSyScNgyJ++o5uPj0KYLs/BeZyxWBp166qgabCYl5Y+qj
USTPnV9fxeePcG6OVouhBPlieOvsS8Kp/4gFlCSOnQW7p4yipr9YQeTKAVKc2cZW
1xJc6LtzlzpE5j1u0j3aYC8QndEm7uiH0UMEfHR40FuI1n1Fj5xKrhlrQ49thTVy
SQFw23GvYivyh9RYzlXcInT3f86fx8Qj6hgqVed5I6DO2Rg2JT0i81vLX/DZv7tw
u08vzZ1QqLovhztkLT/e7WaQbAHPBvRHT7eNfoMseU2yum7cUH7Gfnepk2BO5iMC
AwEAAaOBjzCBjDAJBgNVHRMEAjAAMB0GA1UdDgQWBBRibaZttWcR9FZ33F30qT5C
3KaHizA+BgNVHSMENzA1gBQXkoNKNFXABOoWnn7KYQ+jGkoinKESpBAwDjEMMAoG
A1UEAwwDeXhzggkA06iKxKEefzswEwYDVR0lBAwwCgYIKwYBBQUHAwIwCwYDVR0P
BAQDAgeAMAoGCCqGSM49BAMEA2gAMGUCMQDwIfS0QGK8Co7S7BOzd59eUjQqvHXy
ig0F1i3+mdJWU6sBMYWUvdUmIyzAw85c0OwCMGFTHysnE9EaiO2hA0tEOFa6/74I
IEMzy22PDud3EhDY4paXsdLEKo8PWXdAY6DNGQ==
-----END CERTIFICATE-----
