Certificate:
    Data:
        Version: 3 (0x2)
        Serial Number:
            38:ba:e1:1f:64:39:e6:17:05:5e:34:93:8d:20:f5:cc
    Signature Algorithm: ecdsa-with-SHA512
        Issuer: CN=yxs
        Validity
            Not Before: Jun 21 04:07:48 2022 GMT
            Not After : Sep 23 04:07:48 2024 GMT
        Subject: C=CN, ST=GD, L=SZ, O=PKUSZ, CN=219.223.192.188
        Subject Public Key Info:
            Public Key Algorithm: rsaEncryption
                Public-Key: (2048 bit)
                Modulus:
                    00:d3:a2:1a:0c:e8:5e:19:e4:fc:ba:65:30:84:36:
                    ce:70:19:04:af:36:13:9c:9a:e6:ec:98:9a:05:c9:
                    ab:a0:4e:0e:45:ce:f2:a5:55:6c:92:dc:c4:f9:b3:
                    80:2e:a9:03:6a:ef:cf:e9:b6:8d:47:a9:d5:cd:44:
                    c6:28:74:36:99:f0:00:e4:fa:4c:b0:d3:23:f6:a6:
                    97:84:93:1a:b7:ee:f9:bd:20:54:f2:81:47:d7:ae:
                    b4:b3:a2:5d:6c:41:2a:82:05:50:fd:7c:9a:c0:80:
                    6b:16:bc:db:e7:9e:d1:f7:dd:fb:b8:68:49:ae:51:
                    d4:51:d0:1f:dc:d1:0c:e6:00:b0:b9:fd:7a:fe:35:
                    88:68:27:c9:c3:03:16:8f:c2:75:7a:00:69:30:b4:
                    95:a2:77:4d:2c:a4:81:48:b2:6f:0b:80:91:b4:53:
                    ec:56:14:38:7c:94:00:cb:4d:12:50:1e:1b:bf:e8:
                    86:3a:25:81:cf:6e:52:63:41:46:04:ad:08:53:72:
                    a4:a2:86:5a:8d:b1:65:c1:bf:c4:5b:df:72:ec:8e:
                    90:14:66:d1:43:04:4d:12:22:b3:af:c6:af:5c:88:
                    fa:54:4d:51:ad:ee:ea:cd:be:93:5e:ce:fc:59:11:
                    2f:7d:65:6b:2a:1b:ef:40:ce:58:31:d4:6c:8c:6b:
                    06:ab
                Exponent: 65537 (0x10001)
        X509v3 extensions:
            X509v3 Basic Constraints: 
                CA:FALSE
            X509v3 Subject Key Identifier: 
                CE:A3:3B:24:1A:FF:2E:ED:8E:B6:C6:2C:F9:0B:88:86:2A:B8:48:8D
            X509v3 Authority Key Identifier: 
                keyid:17:92:83:4A:34:55:C0:04:EA:16:9E:7E:CA:61:0F:A3:1A:4A:22:9C
                DirName:/CN=yxs
                serial:D3:A8:8A:C4:A1:1E:7F:3B

            X509v3 Extended Key Usage: 
                TLS Web Server Authentication
            X509v3 Key Usage: 
                Digital Signature, Key Encipherment
            X509v3 Subject Alternative Name: 
                DNS:219.223.192.188
    Signature Algorithm: ecdsa-with-SHA512
         30:65:02:31:00:9d:c7:f8:88:89:75:92:c7:35:ee:84:71:76:
         d9:b3:52:17:d5:fb:97:83:63:4f:12:ce:59:e0:37:21:97:80:
         30:d3:93:62:e8:6d:b9:2d:c8:fa:03:67:8e:62:a9:09:66:02:
         30:7f:3c:e5:5a:d0:b8:8f:fb:d3:d1:01:5a:dc:94:b1:da:80:
         d3:36:13:3c:b2:c1:4a:b4:95:f7:41:d2:dd:72:e5:a9:7c:7e:
         ce:bd:e9:5f:dd:f1:34:1d:bd:6a:a0:3e:30
-----BEGIN CERTIFICATE-----
MIIC9DCCAnqgAwIBAgIQOLrhH2Q55hcFXjSTjSD1zDAKBggqhkjOPQQDBDAOMQww
CgYDVQQDDAN5eHMwHhcNMjIwNjIxMDQwNzQ4WhcNMjQwOTIzMDQwNzQ4WjBRMQsw
CQYDVQQGEwJDTjELMAkGA1UECAwCR0QxCzAJBgNVBAcMAlNaMQ4wDAYDVQQKDAVQ
S1VTWjEYMBYGA1UEAwwPMjE5LjIyMy4xOTIuMTg4MIIBIjANBgkqhkiG9w0BAQEF
AAOCAQ8AMIIBCgKCAQEA06IaDOheGeT8umUwhDbOcBkErzYTnJrm7JiaBcmroE4O
Rc7ypVVsktzE+bOALqkDau/P6baNR6nVzUTGKHQ2mfAA5PpMsNMj9qaXhJMat+75
vSBU8oFH1660s6JdbEEqggVQ/XyawIBrFrzb557R9937uGhJrlHUUdAf3NEM5gCw
uf16/jWIaCfJwwMWj8J1egBpMLSVondNLKSBSLJvC4CRtFPsVhQ4fJQAy00SUB4b
v+iGOiWBz25SY0FGBK0IU3KkooZajbFlwb/EW99y7I6QFGbRQwRNEiKzr8avXIj6
VE1Rre7qzb6TXs78WREvfWVrKhvvQM5YMdRsjGsGqwIDAQABo4GrMIGoMAkGA1Ud
EwQCMAAwHQYDVR0OBBYEFM6jOyQa/y7tjrbGLPkLiIYquEiNMD4GA1UdIwQ3MDWA
FBeSg0o0VcAE6haefsphD6MaSiKcoRKkEDAOMQwwCgYDVQQDDAN5eHOCCQDTqIrE
oR5/OzATBgNVHSUEDDAKBggrBgEFBQcDATALBgNVHQ8EBAMCBaAwGgYDVR0RBBMw
EYIPMjE5LjIyMy4xOTIuMTg4MAoGCCqGSM49BAMEA2gAMGUCMQCdx/iIiXWSxzXu
hHF22bNSF9X7l4NjTxLOWeA3IZeAMNOTYuhtuS3I+gNnjmKpCWYCMH885VrQuI/7
09EBWtyUsdqA0zYTPLLBSrSV90HS3XLlqXx+zr3pX93xNB29aqA+MA==
-----END CERTIFICATE-----
