Certificate:
    Data:
        Version: 3 (0x2)
        Serial Number:
            4b:0b:7c:f8:8e:24:90:a2:47:96:9f:00:01:53:22:8a
        Signature Algorithm: ecdsa-with-SHA512
        Issuer: CN=yxs
        Validity
            Not Before: Jun 22 03:54:49 2022 GMT
            Not After : Sep 24 03:54:49 2024 GMT
        Subject: C=CP, ST=CP, L=CP, O=CP, OU=CP, CN=CP/emailAddress=CP
        Subject Public Key Info:
            Public Key Algorithm: rsaEncryption
                RSA Public-Key: (2048 bit)
                Modulus:
                    00:95:32:ee:54:59:f0:b0:6b:12:1d:a0:77:0c:92:
                    d5:d2:e7:1d:03:bc:ac:ca:5d:1a:9b:85:d7:a8:46:
                    ec:87:35:8e:c7:11:48:f9:2d:70:66:fa:71:32:5c:
                    58:ac:07:5a:ad:48:06:fe:4e:a6:01:87:4c:32:7d:
                    62:2d:05:d5:cd:34:a5:50:93:04:60:51:29:dc:1d:
                    36:e5:ee:21:ed:68:b0:00:a5:7e:ed:33:8d:aa:91:
                    cd:d5:85:f4:53:e2:c6:73:8f:b2:3f:8e:fe:2f:9e:
                    13:03:8f:5e:68:f6:9a:94:00:40:22:be:57:82:1c:
                    a7:35:42:b4:66:51:6d:a8:cb:e6:2a:14:de:d1:90:
                    c0:3f:d1:2b:d4:68:04:d5:be:46:39:f9:3d:40:56:
                    5b:89:2f:cd:56:cf:3d:ba:9f:8f:1f:84:b0:08:e5:
                    a7:de:0d:ab:18:3c:d3:e6:2c:93:b0:ad:73:b9:3e:
                    c9:4d:8b:49:a9:a2:f9:a8:8c:63:62:3c:13:53:d0:
                    05:27:12:c1:f9:2b:d0:f0:f9:16:fe:5c:08:56:a8:
                    7a:de:51:24:82:1f:3b:1f:b7:ae:25:f6:d1:bd:3c:
                    ad:38:e0:62:37:19:d4:36:da:fe:88:de:e2:7a:7d:
                    9e:78:22:c5:58:e2:9b:ba:c4:37:70:ce:08:09:5d:
                    14:5d
                Exponent: 65537 (0x10001)
        X509v3 extensions:
            X509v3 Basic Constraints: 
                CA:FALSE
            X509v3 Subject Key Identifier: 
                A5:0A:DE:8C:4D:C2:4C:29:D4:86:2F:FA:81:57:12:B4:02:23:B3:D9
            X509v3 Authority Key Identifier: 
                keyid:17:92:83:4A:34:55:C0:04:EA:16:9E:7E:CA:61:0F:A3:1A:4A:22:9C
                DirName:/CN=yxs
                serial:D3:A8:8A:C4:A1:1E:7F:3B

            X509v3 Extended Key Usage: 
                TLS Web Client Authentication
            X509v3 Key Usage: 
                Digital Signature
    Signature Algorithm: ecdsa-with-SHA512
         30:65:02:30:35:8a:2d:37:ba:ae:7e:e5:6b:b4:1a:19:a6:19:
         91:49:98:f5:73:08:b6:d5:a9:d0:b8:71:19:22:d0:9b:6c:80:
         ee:ba:26:8a:64:d8:a9:2f:ec:3d:35:6b:21:3e:0e:c6:02:31:
         00:b0:94:57:9c:e3:96:45:01:1e:f4:2d:79:84:87:37:cd:0b:
         aa:96:98:5e:a7:d1:ac:c8:7b:0f:7a:a7:09:c4:15:c1:8e:50:
         7a:c4:5c:8a:a3:19:f8:65:16:56:80:f4:a0
-----BEGIN CERTIFICATE-----
MIIC6DCCAm6gAwIBAgIQSwt8+I4kkKJHlp8AAVMiijAKBggqhkjOPQQDBDAOMQww
CgYDVQQDDAN5eHMwHhcNMjIwNjIyMDM1NDQ5WhcNMjQwOTI0MDM1NDQ5WjBhMQsw
CQYDVQQGEwJDUDELMAkGA1UECAwCQ1AxCzAJBgNVBAcMAkNQMQswCQYDVQQKDAJD
UDELMAkGA1UECwwCQ1AxCzAJBgNVBAMMAkNQMREwDwYJKoZIhvcNAQkBFgJDUDCC
ASIwDQYJKoZIhvcNAQEBBQADggEPADCCAQoCggEBAJUy7lRZ8LBrEh2gdwyS1dLn
HQO8rMpdGpuF16hG7Ic1jscRSPktcGb6cTJcWKwHWq1IBv5OpgGHTDJ9Yi0F1c00
pVCTBGBRKdwdNuXuIe1osAClfu0zjaqRzdWF9FPixnOPsj+O/i+eEwOPXmj2mpQA
QCK+V4IcpzVCtGZRbajL5ioU3tGQwD/RK9RoBNW+Rjn5PUBWW4kvzVbPPbqfjx+E
sAjlp94Nqxg80+Ysk7Ctc7k+yU2LSami+aiMY2I8E1PQBScSwfkr0PD5Fv5cCFao
et5RJIIfOx+3riX20b08rTjgYjcZ1Dba/oje4np9nngixVjim7rEN3DOCAldFF0C
AwEAAaOBjzCBjDAJBgNVHRMEAjAAMB0GA1UdDgQWBBSlCt6MTcJMKdSGL/qBVxK0
AiOz2TA+BgNVHSMENzA1gBQXkoNKNFXABOoWnn7KYQ+jGkoinKESpBAwDjEMMAoG
A1UEAwwDeXhzggkA06iKxKEefzswEwYDVR0lBAwwCgYIKwYBBQUHAwIwCwYDVR0P
BAQDAgeAMAoGCCqGSM49BAMEA2gAMGUCMDWKLTe6rn7la7QaGaYZkUmY9XMIttWp
0LhxGSLQm2yA7romimTYqS/sPTVrIT4OxgIxALCUV5zjlkUBHvQteYSHN80LqpaY
XqfRrMh7D3qnCcQVwY5QesRciqMZ+GUWVoD0oA==
-----END CERTIFICATE-----
