Certificate:
    Data:
        Version: 3 (0x2)
        Serial Number:
            4d:d8:7c:d3:46:a9:3c:36:50:18:2b:5c:48:77:89:a4
        Signature Algorithm: ecdsa-with-SHA512
        Issuer: CN=yxs
        Validity
            Not Before: Jun 22 03:41:32 2022 GMT
            Not After : Sep 24 03:41:32 2024 GMT
        Subject: C=cl, ST=cl, L=cl, O=c, OU=cl, CN=cl/emailAddress=cl
        Subject Public Key Info:
            Public Key Algorithm: rsaEncryption
                RSA Public-Key: (2048 bit)
                Modulus:
                    00:c3:9c:fb:51:1b:07:0f:cd:5f:6b:4e:d7:43:a1:
                    a7:04:1c:47:d5:9b:64:a1:1f:e3:57:9d:bf:8b:8c:
                    0a:d6:93:13:1f:34:c0:07:25:7e:97:58:6b:8c:c7:
                    3e:65:25:fb:f5:4c:59:28:5a:92:a3:17:d6:03:b1:
                    0b:90:80:30:e2:74:9c:3f:c0:dc:25:64:84:d4:05:
                    10:20:c2:12:2a:4b:0a:dc:27:f1:79:7e:05:70:c2:
                    87:a9:60:32:b2:b4:c6:29:e8:3f:75:80:d3:5e:e0:
                    65:51:d4:68:fa:20:dc:9c:3e:11:06:be:a1:2a:58:
                    46:2c:91:ff:fc:1f:4b:2c:0c:aa:cf:d7:05:4d:c2:
                    31:ba:7c:ab:58:8b:c2:97:9a:8e:60:d4:fb:38:f8:
                    bb:4e:83:60:32:7c:f6:07:2f:b1:47:37:89:1c:36:
                    7c:9f:d1:a9:e7:46:e3:a9:e0:e8:ba:a4:a6:cb:2a:
                    67:f0:b1:1c:b2:d4:b5:2f:8d:b3:a4:14:2a:2d:cd:
                    6e:07:b2:6f:c2:06:8b:9b:28:bb:1a:e6:73:c3:dc:
                    f5:bd:21:3c:9a:67:52:3e:ca:d2:5a:b3:ae:45:6c:
                    a8:5e:c8:11:b1:97:3a:e6:22:99:56:81:fd:1d:29:
                    b1:f3:dc:42:d0:23:77:52:72:a8:d3:d6:22:05:67:
                    3d:5f
                Exponent: 65537 (0x10001)
        X509v3 extensions:
            X509v3 Basic Constraints: 
                CA:FALSE
            X509v3 Subject Key Identifier: 
                E6:D9:59:1E:03:A4:88:6D:AE:A7:9A:1F:6F:73:6C:91:B9:10:11:AC
            X509v3 Authority Key Identifier: 
                keyid:17:92:83:4A:34:55:C0:04:EA:16:9E:7E:CA:61:0F:A3:1A:4A:22:9C
                DirName:/CN=yxs
                serial:D3:A8:8A:C4:A1:1E:7F:3B

            X509v3 Extended Key Usage: 
                TLS Web Client Authentication
            X509v3 Key Usage: 
                Digital Signature
    Signature Algorithm: ecdsa-with-SHA512
         30:65:02:30:1d:26:c3:f1:9a:25:fd:a0:71:ee:c2:70:0c:24:
         e8:39:8c:29:e1:16:c5:bc:04:6f:f3:6e:96:c4:13:10:01:51:
         2e:64:3f:6a:58:85:a3:29:d1:94:84:cf:89:41:6c:f6:02:31:
         00:be:e9:8d:07:c1:cc:b9:39:4b:f6:9f:72:b6:99:31:28:71:
         0d:09:03:2e:57:c3:a9:5a:fd:d7:8a:16:06:3c:35:16:ad:84:
         4e:c6:8f:d8:af:7f:6d:86:6e:f5:09:8f:84
-----BEGIN CERTIFICATE-----
MIIC5zCCAm2gAwIBAgIQTdh800apPDZQGCtcSHeJpDAKBggqhkjOPQQDBDAOMQww
CgYDVQQDDAN5eHMwHhcNMjIwNjIyMDM0MTMyWhcNMjQwOTI0MDM0MTMyWjBgMQsw
CQYDVQQGEwJjbDELMAkGA1UECAwCY2wxCzAJBgNVBAcMAmNsMQowCAYDVQQKDAFj
MQswCQYDVQQLDAJjbDELMAkGA1UEAwwCY2wxETAPBgkqhkiG9w0BCQEWAmNsMIIB
IjANBgkqhkiG9w0BAQEFAAOCAQ8AMIIBCgKCAQEAw5z7URsHD81fa07XQ6GnBBxH
1ZtkoR/jV52/i4wK1pMTHzTAByV+l1hrjMc+ZSX79UxZKFqSoxfWA7ELkIAw4nSc
P8DcJWSE1AUQIMISKksK3CfxeX4FcMKHqWAysrTGKeg/dYDTXuBlUdRo+iDcnD4R
Br6hKlhGLJH//B9LLAyqz9cFTcIxunyrWIvCl5qOYNT7OPi7ToNgMnz2By+xRzeJ
HDZ8n9Gp50bjqeDouqSmyypn8LEcstS1L42zpBQqLc1uB7JvwgaLmyi7GuZzw9z1
vSE8mmdSPsrSWrOuRWyoXsgRsZc65iKZVoH9HSmx89xC0CN3UnKo09YiBWc9XwID
AQABo4GPMIGMMAkGA1UdEwQCMAAwHQYDVR0OBBYEFObZWR4DpIhtrqeaH29zbJG5
EBGsMD4GA1UdIwQ3MDWAFBeSg0o0VcAE6haefsphD6MaSiKcoRKkEDAOMQwwCgYD
VQQDDAN5eHOCCQDTqIrEoR5/OzATBgNVHSUEDDAKBggrBgEFBQcDAjALBgNVHQ8E
BAMCB4AwCgYIKoZIzj0EAwQDaAAwZQIwHSbD8Zol/aBx7sJwDCToOYwp4RbFvARv
826WxBMQAVEuZD9qWIWjKdGUhM+JQWz2AjEAvumNB8HMuTlL9p9ytpkxKHENCQMu
V8OpWv3XihYGPDUWrYROxo/Yr39thm71CY+E
-----END CERTIFICATE-----
