Certificate:
    Data:
        Version: 3 (0x2)
        Serial Number:
            62:64:d2:a5:9b:d1:0c:37:88:cf:5b:b4:f8:e0:90:3f
        Signature Algorithm: ecdsa-with-SHA512
        Issuer: CN=yxs
        Validity
            Not Before: Jun 22 04:03:30 2022 GMT
            Not After : Sep 24 04:03:30 2024 GMT
        Subject: C=CN, ST=GD, L=SZ, O=PKU, OU=SECE, CN=client1/emailAddress=client1@pku.edu.cn
        Subject Public Key Info:
            Public Key Algorithm: rsaEncryption
                RSA Public-Key: (2048 bit)
                Modulus:
                    00:97:d7:e8:db:cf:ae:a7:94:25:14:ab:1e:37:8b:
                    0d:6c:4a:10:1f:30:9e:85:7f:8e:85:cf:e1:b3:b7:
                    3c:28:49:f9:4f:ee:73:0b:b9:e2:0f:77:8a:68:ee:
                    fe:b5:d4:c5:2d:46:cf:f9:c0:3f:14:2d:5f:e9:c2:
                    31:9b:ba:f2:d6:3b:47:5c:f3:78:76:66:4b:ac:cb:
                    67:97:22:bf:dc:0b:0f:a0:43:d5:f5:c6:03:29:7c:
                    26:af:06:f0:94:08:66:aa:55:36:ab:53:a7:67:7a:
                    d8:82:2d:37:a0:a1:75:a6:47:91:81:9d:96:f4:b2:
                    ca:4c:51:51:b1:78:3d:8c:50:10:76:6b:7a:ff:f9:
                    ac:fe:f5:f5:41:c0:b4:89:ee:88:b1:e0:6a:1d:81:
                    e9:12:f6:a8:99:c5:28:18:01:2f:44:9d:39:7f:c5:
                    f9:72:a5:c8:9a:c3:ce:87:4b:b7:3f:a8:5a:5d:38:
                    86:da:47:24:74:e3:7c:58:b4:7b:05:20:d4:22:97:
                    52:cb:f2:a9:5b:5e:7a:cc:37:9b:ef:dd:30:c0:71:
                    f4:c9:ed:0b:33:eb:5c:9b:01:a2:72:37:7b:91:29:
                    cd:22:c5:db:5d:ad:4a:fc:11:41:9f:5a:17:bf:b4:
                    4a:8d:4b:fc:6a:d0:a5:b1:a0:57:ad:dc:a8:52:e4:
                    2c:49
                Exponent: 65537 (0x10001)
        X509v3 extensions:
            X509v3 Basic Constraints: 
                CA:FALSE
            X509v3 Subject Key Identifier: 
                57:AA:A1:A2:8E:59:FC:F2:86:F5:6E:60:BC:EA:E9:6E:65:19:F7:D0
            X509v3 Authority Key Identifier: 
                keyid:17:92:83:4A:34:55:C0:04:EA:16:9E:7E:CA:61:0F:A3:1A:4A:22:9C
                DirName:/CN=yxs
                serial:D3:A8:8A:C4:A1:1E:7F:3B

            X509v3 Extended Key Usage: 
                TLS Web Client Authentication
            X509v3 Key Usage: 
                Digital Signature
    Signature Algorithm: ecdsa-with-SHA512
         30:65:02:31:00:e6:a3:46:f5:12:ac:39:79:ba:3f:80:e7:b6:
         9b:7e:66:15:b4:95:24:e0:3a:37:43:16:5a:ba:83:a1:77:ae:
         1d:f3:01:ac:c2:c8:5b:34:d4:37:cc:ce:09:fe:3c:12:a2:02:
         30:5c:1b:86:e1:4f:d4:d7:c8:bd:55:80:48:70:8e:4a:70:1b:
         8a:83:fc:57:f9:e9:1d:8a:c6:20:3e:35:99:3b:f3:47:59:07:
         b8:86:2a:78:d6:7d:52:6d:34:b6:39:d0:20
-----BEGIN CERTIFICATE-----
MIIDADCCAoagAwIBAgIQYmTSpZvRDDeIz1u0+OCQPzAKBggqhkjOPQQDBDAOMQww
CgYDVQQDDAN5eHMwHhcNMjIwNjIyMDQwMzMwWhcNMjQwOTI0MDQwMzMwWjB5MQsw
CQYDVQQGEwJDTjELMAkGA1UECAwCR0QxCzAJBgNVBAcMAlNaMQwwCgYDVQQKDANQ
S1UxDTALBgNVBAsMBFNFQ0UxEDAOBgNVBAMMB2NsaWVudDExITAfBgkqhkiG9w0B
CQEWEmNsaWVudDFAcGt1LmVkdS5jbjCCASIwDQYJKoZIhvcNAQEBBQADggEPADCC
AQoCggEBAJfX6NvPrqeUJRSrHjeLDWxKEB8wnoV/joXP4bO3PChJ+U/ucwu54g93
imju/rXUxS1Gz/nAPxQtX+nCMZu68tY7R1zzeHZmS6zLZ5civ9wLD6BD1fXGAyl8
Jq8G8JQIZqpVNqtTp2d62IItN6ChdaZHkYGdlvSyykxRUbF4PYxQEHZrev/5rP71
9UHAtInuiLHgah2B6RL2qJnFKBgBL0SdOX/F+XKlyJrDzodLtz+oWl04htpHJHTj
fFi0ewUg1CKXUsvyqVteesw3m+/dMMBx9MntCzPrXJsBonI3e5EpzSLF212tSvwR
QZ9aF7+0So1L/GrQpbGgV63cqFLkLEkCAwEAAaOBjzCBjDAJBgNVHRMEAjAAMB0G
A1UdDgQWBBRXqqGijln88ob1bmC86uluZRn30DA+BgNVHSMENzA1gBQXkoNKNFXA
BOoWnn7KYQ+jGkoinKESpBAwDjEMMAoGA1UEAwwDeXhzggkA06iKxKEefzswEwYD
VR0lBAwwCgYIKwYBBQUHAwIwCwYDVR0PBAQDAgeAMAoGCCqGSM49BAMEA2gAMGUC
MQDmo0b1Eqw5ebo/gOe2m35mFbSVJOA6N0MWWrqDoXeuHfMBrMLIWzTUN8zOCf48
EqICMFwbhuFP1NfIvVWASHCOSnAbioP8V/npHYrGID41mTvzR1kHuIYqeNZ9Um00
tjnQIA==
-----END CERTIFICATE-----
