Certificate:
    Data:
        Version: 3 (0x2)
        Serial Number:
            71:8e:07:b3:4d:26:cb:04:8f:f3:9b:0d:2e:23:9f:1e
        Signature Algorithm: ecdsa-with-SHA512
        Issuer: CN=yxs
        Validity
            Not Before: Jun 21 20:55:42 2022 GMT
            Not After : Sep 23 20:55:42 2024 GMT
        Subject: C=CN, ST=GD, L=SZ, O=PKU, OU=SECE, CN=client3/emailAddress=client3@pku.edu.cn
        Subject Public Key Info:
            Public Key Algorithm: rsaEncryption
                RSA Public-Key: (2048 bit)
                Modulus:
                    00:de:c4:93:c8:1f:e1:b5:38:42:b7:54:35:e4:33:
                    e3:96:af:73:e5:60:26:f0:f3:7c:a4:c0:e5:92:5b:
                    79:85:6e:49:58:ce:f4:c2:96:f5:8a:b2:85:9a:c6:
                    75:e5:a0:1e:6d:f5:23:97:b7:2d:e8:60:db:8b:7f:
                    de:7a:a5:dc:ee:73:1e:7e:76:52:d0:e9:b0:93:c5:
                    62:87:49:20:ce:ff:ea:72:fc:91:6b:fb:ea:be:19:
                    4a:2c:d3:a9:b1:2d:08:5a:d0:1c:f7:e4:20:b9:1b:
                    40:a1:dd:e2:66:9f:9d:c6:55:a8:92:7e:ce:07:c7:
                    0a:fb:2a:89:9a:f3:e5:1e:3a:5a:9a:4c:ea:29:49:
                    6e:1e:f1:41:15:c9:8b:8f:1f:3e:99:aa:47:f0:f1:
                    4e:2a:1a:c7:46:e2:e8:7d:7d:0b:95:0d:f3:10:d1:
                    3b:4c:c2:97:89:c3:d8:25:00:fb:fe:48:a4:2d:c4:
                    93:48:41:b1:8a:55:0e:2a:3a:90:57:a3:5d:65:a1:
                    ee:6b:f5:58:3a:ec:40:e6:3d:4a:15:a6:ec:b6:2c:
                    cb:aa:2b:09:bf:da:ae:5d:76:f1:6e:b9:18:d9:ae:
                    96:f3:98:4d:45:6f:d5:75:b9:d1:a5:05:4b:30:dc:
                    92:2e:67:f9:0e:9c:9a:e8:46:7a:aa:d4:63:5e:0c:
                    64:73
                Exponent: 65537 (0x10001)
        X509v3 extensions:
            X509v3 Basic Constraints: 
                CA:FALSE
            X509v3 Subject Key Identifier: 
                21:C2:BA:E8:9A:B4:24:93:1C:B0:FD:6B:55:0E:91:A9:32:FB:5F:21
            X509v3 Authority Key Identifier: 
                keyid:17:92:83:4A:34:55:C0:04:EA:16:9E:7E:CA:61:0F:A3:1A:4A:22:9C
                DirName:/CN=yxs
                serial:D3:A8:8A:C4:A1:1E:7F:3B

            X509v3 Extended Key Usage: 
                TLS Web Client Authentication
            X509v3 Key Usage: 
                Digital Signature
    Signature Algorithm: ecdsa-with-SHA512
         30:65:02:30:75:c2:12:dd:37:f1:50:e6:5e:e3:52:e9:8e:9b:
         6a:34:22:ef:5c:77:1d:0f:6c:84:77:1a:82:f5:73:6b:67:8d:
         69:40:57:1c:c5:b7:6f:be:a3:56:52:c8:f8:44:47:e0:02:31:
         00:9f:1e:fb:09:35:42:4d:89:c3:15:28:fe:24:a3:ed:e6:21:
         57:3a:9e:db:5c:ad:f4:78:78:88:50:29:3d:54:5b:f5:f1:c9:
         c4:38:5b:dd:52:4a:8a:00:ff:ad:56:d8:ab
-----BEGIN CERTIFICATE-----
MIIDADCCAoagAwIBAgIQcY4Hs00mywSP85sNLiOfHjAKBggqhkjOPQQDBDAOMQww
CgYDVQQDDAN5eHMwHhcNMjIwNjIxMjA1NTQyWhcNMjQwOTIzMjA1NTQyWjB5MQsw
CQYDVQQGEwJDTjELMAkGA1UECAwCR0QxCzAJBgNVBAcMAlNaMQwwCgYDVQQKDANQ
S1UxDTALBgNVBAsMBFNFQ0UxEDAOBgNVBAMMB2NsaWVudDMxITAfBgkqhkiG9w0B
CQEWEmNsaWVudDNAcGt1LmVkdS5jbjCCASIwDQYJKoZIhvcNAQEBBQADggEPADCC
AQoCggEBAN7Ek8gf4bU4QrdUNeQz45avc+VgJvDzfKTA5ZJbeYVuSVjO9MKW9Yqy
hZrGdeWgHm31I5e3Lehg24t/3nql3O5zHn52UtDpsJPFYodJIM7/6nL8kWv76r4Z
SizTqbEtCFrQHPfkILkbQKHd4mafncZVqJJ+zgfHCvsqiZrz5R46WppM6ilJbh7x
QRXJi48fPpmqR/DxTioax0bi6H19C5UN8xDRO0zCl4nD2CUA+/5IpC3Ek0hBsYpV
Dio6kFejXWWh7mv1WDrsQOY9ShWm7LYsy6orCb/arl128W65GNmulvOYTUVv1XW5
0aUFSzDcki5n+Q6cmuhGeqrUY14MZHMCAwEAAaOBjzCBjDAJBgNVHRMEAjAAMB0G
A1UdDgQWBBQhwrromrQkkxyw/WtVDpGpMvtfITA+BgNVHSMENzA1gBQXkoNKNFXA
BOoWnn7KYQ+jGkoinKESpBAwDjEMMAoGA1UEAwwDeXhzggkA06iKxKEefzswEwYD
VR0lBAwwCgYIKwYBBQUHAwIwCwYDVR0PBAQDAgeAMAoGCCqGSM49BAMEA2gAMGUC
MHXCEt038VDmXuNS6Y6bajQi71x3HQ9shHcagvVza2eNaUBXHMW3b76jVlLI+ERH
4AIxAJ8e+wk1Qk2JwxUo/iSj7eYhVzqe21yt9Hh4iFApPVRb9fHJxDhb3VJKigD/
rVbYqw==
-----END CERTIFICATE-----
