Certificate:
    Data:
        Version: 3 (0x2)
        Serial Number:
            78:43:34:3a:75:b1:3b:21:01:28:4e:22:0a:16:df:f4
        Signature Algorithm: ecdsa-with-SHA512
        Issuer: CN=yxs
        Validity
            Not Before: Jun 22 03:25:11 2022 GMT
            Not After : Sep 24 03:25:11 2024 GMT
        Subject: C=CN, ST=PKU, L=SZ, O=PKU, OU=SECE, CN=server/emailAddress=server@pku.edu.cn
        Subject Public Key Info:
            Public Key Algorithm: rsaEncryption
                RSA Public-Key: (2048 bit)
                Modulus:
                    00:9d:41:9a:be:ac:3d:46:00:dd:2e:e6:f4:d9:7d:
                    24:57:68:4f:4e:ff:56:dd:3e:f2:42:fc:8c:e6:79:
                    1d:b4:19:d6:8b:85:5e:60:97:60:fc:a0:e1:36:ee:
                    5f:85:f8:be:b6:fb:d0:d6:d5:ed:1a:3d:da:c3:dc:
                    a4:08:47:67:78:a8:cb:1d:06:30:3f:d5:73:de:bf:
                    b0:1d:ef:56:fa:10:fd:58:b6:c1:d6:da:09:b2:d5:
                    25:fd:80:19:05:a7:7f:e5:0e:35:e6:24:d5:b3:fa:
                    23:fe:f7:9e:b3:82:a4:56:4c:7b:42:1c:76:84:9b:
                    35:f1:26:3c:e5:b7:f5:0d:be:52:15:0d:c4:95:3a:
                    bb:b3:25:f4:18:5e:b3:bd:01:cc:5b:f5:fd:20:84:
                    e5:c1:0e:d0:aa:80:c2:7e:d4:16:e9:54:7a:13:cc:
                    4d:ae:80:3f:99:20:05:e4:35:c2:29:49:5c:9f:41:
                    94:66:df:f0:dc:8b:bf:49:bc:bd:91:19:02:b4:29:
                    56:df:7b:f2:21:54:8c:46:b5:20:b3:09:07:a6:f2:
                    b6:be:8d:ef:bd:a8:d2:bc:db:57:f3:af:b1:2f:3a:
                    b0:3b:5f:69:85:6d:a9:ba:8d:1d:60:9e:25:d4:40:
                    32:e2:06:ab:37:43:ad:b1:a5:3e:60:11:23:18:6f:
                    74:b7
                Exponent: 65537 (0x10001)
        X509v3 extensions:
            X509v3 Basic Constraints: 
                CA:FALSE
            X509v3 Subject Key Identifier: 
                E2:E1:A1:A1:2A:3E:C1:C2:E1:B6:3E:30:19:07:6A:98:C6:7A:2D:76
            X509v3 Authority Key Identifier: 
                keyid:17:92:83:4A:34:55:C0:04:EA:16:9E:7E:CA:61:0F:A3:1A:4A:22:9C
                DirName:/CN=yxs
                serial:D3:A8:8A:C4:A1:1E:7F:3B

            X509v3 Extended Key Usage: 
                TLS Web Client Authentication
            X509v3 Key Usage: 
                Digital Signature
    Signature Algorithm: ecdsa-with-SHA512
         30:64:02:30:02:75:ef:27:a2:3c:cb:9f:8b:a9:c6:ff:49:db:
         2e:cc:11:a8:85:4a:51:10:e7:f1:23:10:cf:5f:de:23:db:27:
         b0:78:23:0f:97:09:ff:2e:17:bc:58:a7:07:eb:0c:60:02:30:
         34:f9:cd:ae:18:80:5a:fb:4e:d5:74:50:10:f5:a1:eb:a7:24:
         21:e4:65:f8:7a:31:74:01:91:d6:fb:35:40:f4:17:ec:1e:65:
         e3:7f:b0:18:de:76:29:4f:5b:a8:66:da
-----BEGIN CERTIFICATE-----
MIIC/jCCAoWgAwIBAgIQeEM0OnWxOyEBKE4iChbf9DAKBggqhkjOPQQDBDAOMQww
CgYDVQQDDAN5eHMwHhcNMjIwNjIyMDMyNTExWhcNMjQwOTI0MDMyNTExWjB4MQsw
CQYDVQQGEwJDTjEMMAoGA1UECAwDUEtVMQswCQYDVQQHDAJTWjEMMAoGA1UECgwD
UEtVMQ0wCwYDVQQLDARTRUNFMQ8wDQYDVQQDDAZzZXJ2ZXIxIDAeBgkqhkiG9w0B
CQEWEXNlcnZlckBwa3UuZWR1LmNuMIIBIjANBgkqhkiG9w0BAQEFAAOCAQ8AMIIB
CgKCAQEAnUGavqw9RgDdLub02X0kV2hPTv9W3T7yQvyM5nkdtBnWi4VeYJdg/KDh
Nu5fhfi+tvvQ1tXtGj3aw9ykCEdneKjLHQYwP9Vz3r+wHe9W+hD9WLbB1toJstUl
/YAZBad/5Q415iTVs/oj/vees4KkVkx7Qhx2hJs18SY85bf1Db5SFQ3ElTq7syX0
GF6zvQHMW/X9IITlwQ7QqoDCftQW6VR6E8xNroA/mSAF5DXCKUlcn0GUZt/w3Iu/
Sby9kRkCtClW33vyIVSMRrUgswkHpvK2vo3vvajSvNtX86+xLzqwO19phW2puo0d
YJ4l1EAy4garN0OtsaU+YBEjGG90twIDAQABo4GPMIGMMAkGA1UdEwQCMAAwHQYD
VR0OBBYEFOLhoaEqPsHC4bY+MBkHapjGei12MD4GA1UdIwQ3MDWAFBeSg0o0VcAE
6haefsphD6MaSiKcoRKkEDAOMQwwCgYDVQQDDAN5eHOCCQDTqIrEoR5/OzATBgNV
HSUEDDAKBggrBgEFBQcDAjALBgNVHQ8EBAMCB4AwCgYIKoZIzj0EAwQDZwAwZAIw
AnXvJ6I8y5+Lqcb/SdsuzBGohUpREOfxIxDPX94j2yeweCMPlwn/Lhe8WKcH6wxg
AjA0+c2uGIBa+07VdFAQ9aHrpyQh5GX4ejF0AZHW+zVA9BfsHmXjf7AY3nYpT1uo
Zto=
-----END CERTIFICATE-----
