Certificate:
    Data:
        Version: 3 (0x2)
        Serial Number:
            7e:28:74:14:b6:6d:72:2c:03:8e:2f:eb:97:d7:71:29
        Signature Algorithm: ecdsa-with-SHA512
        Issuer: CN=yxs
        Validity
            Not Before: Jun 21 21:24:48 2022 GMT
            Not After : Sep 23 21:24:48 2024 GMT
        Subject: C=CN, ST=GD, L=SZ, O=yxs, CN=com
        Subject Public Key Info:
            Public Key Algorithm: rsaEncryption
                RSA Public-Key: (2048 bit)
                Modulus:
                    00:e2:e2:a0:99:4c:22:cc:ff:21:62:4d:f9:aa:d4:
                    ae:02:89:37:38:b9:69:bd:0f:ae:3a:20:40:a0:98:
                    54:4b:83:4a:04:10:77:dd:a1:c5:10:e2:86:22:c9:
                    1c:2f:84:ac:78:3f:c9:45:8e:fb:1e:ea:d7:c1:db:
                    5d:a3:09:83:a4:38:fe:7f:6d:ee:01:81:b3:9a:bf:
                    c1:56:43:58:02:60:45:20:86:da:3d:98:c9:e1:c5:
                    cb:e4:ba:1a:70:36:14:c2:4c:c0:95:ce:6a:62:32:
                    bb:63:63:9e:83:23:e8:f3:e2:9f:8b:60:d4:e9:76:
                    81:21:aa:7d:0f:3a:d0:64:75:18:8f:d0:b9:be:6f:
                    8c:85:e1:f8:9e:fa:e1:9d:7f:ce:bb:3a:98:5c:27:
                    79:62:13:3a:89:7f:c5:31:7a:9b:01:f6:e5:f3:9f:
                    e1:1f:fc:23:6a:2c:58:9d:36:e4:ba:14:a6:b9:bf:
                    72:6e:88:a2:a0:d0:18:7e:d8:c4:e5:4b:a6:76:40:
                    47:54:f2:cd:55:f7:fc:4a:c4:a8:58:fc:db:cc:50:
                    93:59:43:fe:2d:e6:14:53:e1:8e:d0:0b:0c:27:06:
                    18:07:4c:fb:1b:21:a0:80:88:bd:76:dc:dc:2c:60:
                    42:b8:4d:33:3c:5d:f1:73:ae:ed:99:22:a4:a8:a5:
                    f8:f7
                Exponent: 65537 (0x10001)
        X509v3 extensions:
            X509v3 Basic Constraints: 
                CA:FALSE
            X509v3 Subject Key Identifier: 
                A8:F1:1C:E8:21:84:42:91:5A:0B:76:FF:19:B4:F3:57:A6:29:2F:EF
            X509v3 Authority Key Identifier: 
                keyid:17:92:83:4A:34:55:C0:04:EA:16:9E:7E:CA:61:0F:A3:1A:4A:22:9C
                DirName:/CN=yxs
                serial:D3:A8:8A:C4:A1:1E:7F:3B

            X509v3 Extended Key Usage: 
                TLS Web Client Authentication
            X509v3 Key Usage: 
                Digital Signature
    Signature Algorithm: ecdsa-with-SHA512
         30:65:02:31:00:a3:fb:90:eb:64:e5:66:f8:72:c2:ca:1e:02:
         5b:e7:8b:66:1c:94:6d:2f:01:f1:37:06:57:76:64:69:84:cb:
         7e:21:07:f6:12:64:9a:56:24:88:11:df:53:c7:b7:3d:b7:02:
         30:63:5e:0f:4c:76:ed:d6:d4:44:53:93:6d:10:d5:e4:3d:15:
         da:89:fd:25:19:43:4d:45:a1:88:cc:c1:7b:99:b0:98:db:3d:
         56:e2:ea:ce:d7:1a:21:04:c4:11:f6:a5:21
-----BEGIN CERTIFICATE-----
MIICyjCCAlCgAwIBAgIQfih0FLZtciwDji/rl9dxKTAKBggqhkjOPQQDBDAOMQww
CgYDVQQDDAN5eHMwHhcNMjIwNjIxMjEyNDQ4WhcNMjQwOTIzMjEyNDQ4WjBDMQsw
CQYDVQQGEwJDTjELMAkGA1UECAwCR0QxCzAJBgNVBAcMAlNaMQwwCgYDVQQKDAN5
eHMxDDAKBgNVBAMMA2NvbTCCASIwDQYJKoZIhvcNAQEBBQADggEPADCCAQoCggEB
AOLioJlMIsz/IWJN+arUrgKJNzi5ab0PrjogQKCYVEuDSgQQd92hxRDihiLJHC+E
rHg/yUWO+x7q18HbXaMJg6Q4/n9t7gGBs5q/wVZDWAJgRSCG2j2YyeHFy+S6GnA2
FMJMwJXOamIyu2NjnoMj6PPin4tg1Ol2gSGqfQ860GR1GI/Qub5vjIXh+J764Z1/
zrs6mFwneWITOol/xTF6mwH25fOf4R/8I2osWJ025LoUprm/cm6IoqDQGH7YxOVL
pnZAR1TyzVX3/ErEqFj828xQk1lD/i3mFFPhjtALDCcGGAdM+xshoICIvXbc3Cxg
QrhNMzxd8XOu7ZkipKil+PcCAwEAAaOBjzCBjDAJBgNVHRMEAjAAMB0GA1UdDgQW
BBSo8RzoIYRCkVoLdv8ZtPNXpikv7zA+BgNVHSMENzA1gBQXkoNKNFXABOoWnn7K
YQ+jGkoinKESpBAwDjEMMAoGA1UEAwwDeXhzggkA06iKxKEefzswEwYDVR0lBAww
CgYIKwYBBQUHAwIwCwYDVR0PBAQDAgeAMAoGCCqGSM49BAMEA2gAMGUCMQCj+5Dr
ZOVm+HLCyh4CW+eLZhyUbS8B8TcGV3ZkaYTLfiEH9hJkmlYkiBHfU8e3PbcCMGNe
D0x27dbURFOTbRDV5D0V2on9JRlDTUWhiMzBe5mwmNs9VuLqztcaIQTEEfalIQ==
-----END CERTIFICATE-----
