Certificate:
    Data:
        Version: 3 (0x2)
        Serial Number:
            8b:01:7d:63:cb:ee:3f:fa:03:2e:4b:60:1b:53:f0:83
        Signature Algorithm: ecdsa-with-SHA512
        Issuer: CN=yxs
        Validity
            Not Before: Jun 22 03:53:32 2022 GMT
            Not After : Sep 24 03:53:32 2024 GMT
        Subject: C=CL, ST=CL, L=CL, O=CL, OU=CL, CN=CL/emailAddress=Cl
        Subject Public Key Info:
            Public Key Algorithm: rsaEncryption
                RSA Public-Key: (2048 bit)
                Modulus:
                    00:89:f1:39:c8:19:28:7f:80:56:b9:32:3c:b5:ac:
                    4a:41:a7:ff:5e:68:03:eb:2e:a1:c3:64:fe:5b:98:
                    88:3f:67:aa:e2:8f:5a:71:02:f0:2e:18:c6:b8:9a:
                    a0:3d:9c:07:20:98:64:8e:82:9c:64:8a:5a:44:02:
                    96:f6:3c:18:25:d6:3b:ff:da:43:42:cd:39:82:98:
                    24:83:2a:2d:5b:02:62:f3:f1:a5:9a:5f:c4:48:f0:
                    a4:67:55:df:c9:11:fe:18:09:f8:60:9b:8e:0d:a8:
                    e7:fb:71:72:0f:f3:13:20:0f:45:9f:e5:88:f4:11:
                    fa:0a:1a:36:81:79:70:a2:de:ca:f8:6c:9f:7f:9c:
                    b7:c9:a1:25:a6:95:0e:ed:f1:ff:06:a4:fa:ef:88:
                    aa:ac:9e:84:21:63:51:69:3e:94:fc:87:b5:0d:d4:
                    6a:4b:05:75:09:b5:9d:22:ba:8e:cf:c7:0f:11:1c:
                    67:89:1e:fb:8a:0f:d0:ba:9b:b1:e9:e4:ed:8b:b5:
                    83:2d:69:53:eb:af:5e:37:46:32:cd:ba:fe:83:30:
                    9c:49:fe:ca:65:bd:de:39:81:1d:0a:71:64:65:50:
                    f2:1b:9d:6e:27:0c:4b:02:eb:60:94:83:cd:3e:d5:
                    65:92:39:80:d1:d4:43:ac:d1:d4:25:8e:0e:da:e7:
                    6f:0f
                Exponent: 65537 (0x10001)
        X509v3 extensions:
            X509v3 Basic Constraints: 
                CA:FALSE
            X509v3 Subject Key Identifier: 
                39:B9:BF:5D:3C:0D:0D:C4:9B:A5:6B:6F:A0:44:51:78:26:AE:21:11
            X509v3 Authority Key Identifier: 
                keyid:17:92:83:4A:34:55:C0:04:EA:16:9E:7E:CA:61:0F:A3:1A:4A:22:9C
                DirName:/CN=yxs
                serial:D3:A8:8A:C4:A1:1E:7F:3B

            X509v3 Extended Key Usage: 
                TLS Web Client Authentication
            X509v3 Key Usage: 
                Digital Signature
    Signature Algorithm: ecdsa-with-SHA512
         30:65:02:30:4a:bf:6c:a7:3d:71:6e:3f:f3:23:52:e4:77:ec:
         28:3e:07:25:28:f4:e9:f3:22:e9:b4:ba:0a:84:ad:51:7f:a6:
         7e:d5:a0:7c:24:ef:a3:02:51:6c:8a:99:2b:3d:1e:e4:02:31:
         00:8b:27:55:a3:29:cf:48:a1:c5:39:51:30:89:fc:f8:02:e5:
         ec:69:cf:76:41:04:e4:5e:f4:3e:3f:64:b8:9e:58:f0:63:f9:
         57:22:94:cf:88:57:09:94:c3:7d:9e:19:1d
-----BEGIN CERTIFICATE-----
MIIC6TCCAm+gAwIBAgIRAIsBfWPL7j/6Ay5LYBtT8IMwCgYIKoZIzj0EAwQwDjEM
MAoGA1UEAwwDeXhzMB4XDTIyMDYyMjAzNTMzMloXDTI0MDkyNDAzNTMzMlowYTEL
MAkGA1UEBhMCQ0wxCzAJBgNVBAgMAkNMMQswCQYDVQQHDAJDTDELMAkGA1UECgwC
Q0wxCzAJBgNVBAsMAkNMMQswCQYDVQQDDAJDTDERMA8GCSqGSIb3DQEJARYCQ2ww
ggEiMA0GCSqGSIb3DQEBAQUAA4IBDwAwggEKAoIBAQCJ8TnIGSh/gFa5Mjy1rEpB
p/9eaAPrLqHDZP5bmIg/Z6rij1pxAvAuGMa4mqA9nAcgmGSOgpxkilpEApb2PBgl
1jv/2kNCzTmCmCSDKi1bAmLz8aWaX8RI8KRnVd/JEf4YCfhgm44NqOf7cXIP8xMg
D0Wf5Yj0EfoKGjaBeXCi3sr4bJ9/nLfJoSWmlQ7t8f8GpPrviKqsnoQhY1FpPpT8
h7UN1GpLBXUJtZ0iuo7Pxw8RHGeJHvuKD9C6m7Hp5O2LtYMtaVPrr143RjLNuv6D
MJxJ/splvd45gR0KcWRlUPIbnW4nDEsC62CUg80+1WWSOYDR1EOs0dQljg7a528P
AgMBAAGjgY8wgYwwCQYDVR0TBAIwADAdBgNVHQ4EFgQUObm/XTwNDcSbpWtvoERR
eCauIREwPgYDVR0jBDcwNYAUF5KDSjRVwATqFp5+ymEPoxpKIpyhEqQQMA4xDDAK
BgNVBAMMA3l4c4IJANOoisShHn87MBMGA1UdJQQMMAoGCCsGAQUFBwMCMAsGA1Ud
DwQEAwIHgDAKBggqhkjOPQQDBANoADBlAjBKv2ynPXFuP/MjUuR37Cg+ByUo9Onz
Ium0ugqErVF/pn7VoHwk76MCUWyKmSs9HuQCMQCLJ1WjKc9IocU5UTCJ/PgC5exp
z3ZBBORe9D4/ZLieWPBj+VcilM+IVwmUw32eGR0=
-----END CERTIFICATE-----
