Certificate:
    Data:
        Version: 3 (0x2)
        Serial Number:
            8c:96:62:0d:d7:27:b6:1d:bb:43:6f:1b:28:54:f5:9d
    Signature Algorithm: ecdsa-with-SHA512
        Issuer: CN=yxs
        Validity
            Not Before: Jun 20 13:46:10 2022 GMT
            Not After : Sep 22 13:46:10 2024 GMT
        Subject: C=CN, ST=GD, L=SZ, O=yxs, CN=com
        Subject Public Key Info:
            Public Key Algorithm: rsaEncryption
                Public-Key: (2048 bit)
                Modulus:
                    00:e2:e2:a0:99:4c:22:cc:ff:21:62:4d:f9:aa:d4:
                    ae:02:89:37:38:b9:69:bd:0f:ae:3a:20:40:a0:98:
                    54:4b:83:4a:04:10:77:dd:a1:c5:10:e2:86:22:c9:
                    1c:2f:84:ac:78:3f:c9:45:8e:fb:1e:ea:d7:c1:db:
                    5d:a3:09:83:a4:38:fe:7f:6d:ee:01:81:b3:9a:bf:
                    c1:56:43:58:02:60:45:20:86:da:3d:98:c9:e1:c5:
                    cb:e4:ba:1a:70:36:14:c2:4c:c0:95:ce:6a:62:32:
                    bb:63:63:9e:83:23:e8:f3:e2:9f:8b:60:d4:e9:76:
                    81:21:aa:7d:0f:3a:d0:64:75:18:8f:d0:b9:be:6f:
                    8c:85:e1:f8:9e:fa:e1:9d:7f:ce:bb:3a:98:5c:27:
                    79:62:13:3a:89:7f:c5:31:7a:9b:01:f6:e5:f3:9f:
                    e1:1f:fc:23:6a:2c:58:9d:36:e4:ba:14:a6:b9:bf:
                    72:6e:88:a2:a0:d0:18:7e:d8:c4:e5:4b:a6:76:40:
                    47:54:f2:cd:55:f7:fc:4a:c4:a8:58:fc:db:cc:50:
                    93:59:43:fe:2d:e6:14:53:e1:8e:d0:0b:0c:27:06:
                    18:07:4c:fb:1b:21:a0:80:88:bd:76:dc:dc:2c:60:
                    42:b8:4d:33:3c:5d:f1:73:ae:ed:99:22:a4:a8:a5:
                    f8:f7
                Exponent: 65537 (0x10001)
        X509v3 extensions:
            X509v3 Basic Constraints: 
                CA:FALSE
            X509v3 Subject Key Identifier: 
                A8:F1:1C:E8:21:84:42:91:5A:0B:76:FF:19:B4:F3:57:A6:29:2F:EF
            X509v3 Authority Key Identifier: 
                keyid:17:92:83:4A:34:55:C0:04:EA:16:9E:7E:CA:61:0F:A3:1A:4A:22:9C
                DirName:/CN=yxs
                serial:D3:A8:8A:C4:A1:1E:7F:3B

            X509v3 Extended Key Usage: 
                TLS Web Server Authentication
            X509v3 Key Usage: 
                Digital Signature, Key Encipherment
            X509v3 Subject Alternative Name: 
                DNS:com
    Signature Algorithm: ecdsa-with-SHA512
         30:65:02:30:1b:3c:2c:1d:9c:de:22:e5:e3:4d:6d:cc:3d:43:
         14:ee:bc:82:a5:6b:96:12:55:ca:c9:6b:db:fb:0c:98:28:68:
         8a:73:09:17:c2:fd:93:8b:41:a8:5c:3c:4e:b6:3b:78:02:31:
         00:c7:2a:3e:a2:99:b0:55:ee:82:5d:8a:43:cf:de:61:31:e3:
         05:c8:31:91:96:55:7e:96:dd:66:ad:42:d5:f4:95:3e:15:a9:
         e2:85:b4:fe:48:8d:e6:84:65:0e:ee:7b:69
-----BEGIN CERTIFICATE-----
MIIC2zCCAmGgAwIBAgIRAIyWYg3XJ7Ydu0NvGyhU9Z0wCgYIKoZIzj0EAwQwDjEM
MAoGA1UEAwwDeXhzMB4XDTIyMDYyMDEzNDYxMFoXDTI0MDkyMjEzNDYxMFowQzEL
MAkGA1UEBhMCQ04xCzAJBgNVBAgMAkdEMQswCQYDVQQHDAJTWjEMMAoGA1UECgwD
eXhzMQwwCgYDVQQDDANjb20wggEiMA0GCSqGSIb3DQEBAQUAA4IBDwAwggEKAoIB
AQDi4qCZTCLM/yFiTfmq1K4CiTc4uWm9D646IECgmFRLg0oEEHfdocUQ4oYiyRwv
hKx4P8lFjvse6tfB212jCYOkOP5/be4BgbOav8FWQ1gCYEUghto9mMnhxcvkuhpw
NhTCTMCVzmpiMrtjY56DI+jz4p+LYNTpdoEhqn0POtBkdRiP0Lm+b4yF4fie+uGd
f867OphcJ3liEzqJf8UxepsB9uXzn+Ef/CNqLFidNuS6FKa5v3JuiKKg0Bh+2MTl
S6Z2QEdU8s1V9/xKxKhY/NvMUJNZQ/4t5hRT4Y7QCwwnBhgHTPsbIaCAiL123Nws
YEK4TTM8XfFzru2ZIqSopfj3AgMBAAGjgZ8wgZwwCQYDVR0TBAIwADAdBgNVHQ4E
FgQUqPEc6CGEQpFaC3b/GbTzV6YpL+8wPgYDVR0jBDcwNYAUF5KDSjRVwATqFp5+
ymEPoxpKIpyhEqQQMA4xDDAKBgNVBAMMA3l4c4IJANOoisShHn87MBMGA1UdJQQM
MAoGCCsGAQUFBwMBMAsGA1UdDwQEAwIFoDAOBgNVHREEBzAFggNjb20wCgYIKoZI
zj0EAwQDaAAwZQIwGzwsHZzeIuXjTW3MPUMU7ryCpWuWElXKyWvb+wyYKGiKcwkX
wv2Ti0GoXDxOtjt4AjEAxyo+opmwVe6CXYpDz95hMeMFyDGRllV+lt1mrULV9JU+
FanihbT+SI3mhGUO7ntp
-----END CERTIFICATE-----
