Certificate:
    Data:
        Version: 3 (0x2)
        Serial Number:
            8e:bc:b3:4c:19:48:3d:a8:41:a4:89:59:07:8d:54:c7
        Signature Algorithm: ecdsa-with-SHA512
        Issuer: CN=yxs
        Validity
            Not Before: Jun 22 03:43:27 2022 GMT
            Not After : Sep 24 03:43:27 2024 GMT
        Subject: C=CN, ST=CN, L=CN, O=CN, OU=CN, CN=CN/emailAddress=CN
        Subject Public Key Info:
            Public Key Algorithm: rsaEncryption
                RSA Public-Key: (2048 bit)
                Modulus:
                    00:a2:b6:a0:d5:e2:b5:71:f0:c9:de:89:0a:28:4b:
                    be:e3:fc:76:42:e8:ad:c7:db:8c:3a:24:ad:73:5b:
                    7c:3f:2f:4e:c2:db:01:d9:38:6a:25:3a:77:08:e9:
                    75:56:36:e6:85:3e:59:3b:2b:d9:8e:d8:33:a0:b7:
                    a4:4b:b5:92:84:94:c3:a2:6f:98:ca:9c:e8:b7:bd:
                    1f:55:6f:c0:65:43:67:a3:dd:51:ad:5b:41:48:4b:
                    49:b5:9d:84:35:60:b6:5b:10:6b:cb:23:46:49:fa:
                    ce:b1:a9:91:fe:8d:f7:af:c5:a0:7a:28:92:ff:27:
                    7c:6e:96:5f:4d:65:14:70:61:ad:d7:a6:58:57:55:
                    6b:7c:db:18:d6:03:a2:83:81:f0:a5:38:ab:54:eb:
                    ac:a3:ad:98:d4:cc:84:67:96:fa:e6:2c:ab:5e:1f:
                    d7:b1:0c:5f:db:00:02:c0:45:7e:3c:01:60:30:75:
                    3c:44:0f:72:65:e0:67:f6:f8:44:31:6d:a1:c9:3b:
                    12:59:6a:36:a4:01:45:b3:83:3a:8f:07:98:83:90:
                    36:1c:9e:23:c8:c0:b8:04:c7:79:24:eb:24:35:5b:
                    0b:9d:c3:f1:9b:39:4f:06:fe:51:a6:aa:a2:d4:f5:
                    fa:fd:20:57:5f:20:a7:90:f7:4f:4e:3a:39:82:b5:
                    18:f7
                Exponent: 65537 (0x10001)
        X509v3 extensions:
            X509v3 Basic Constraints: 
                CA:FALSE
            X509v3 Subject Key Identifier: 
                E3:E6:A0:73:BF:43:75:F5:C1:3D:5A:35:94:D0:48:71:35:80:C2:AF
            X509v3 Authority Key Identifier: 
                keyid:17:92:83:4A:34:55:C0:04:EA:16:9E:7E:CA:61:0F:A3:1A:4A:22:9C
                DirName:/CN=yxs
                serial:D3:A8:8A:C4:A1:1E:7F:3B

            X509v3 Extended Key Usage: 
                TLS Web Client Authentication
            X509v3 Key Usage: 
                Digital Signature
    Signature Algorithm: ecdsa-with-SHA512
         30:65:02:30:38:a6:89:64:d1:7b:94:f8:b6:74:32:e8:76:40:
         41:5a:54:79:10:1a:18:59:d4:ed:9c:91:63:26:22:5a:83:5b:
         93:ef:c3:29:85:8c:05:19:08:12:9f:c5:3e:f0:3c:23:02:31:
         00:ed:b1:af:d1:fb:0b:81:98:0e:36:f6:5e:50:12:09:ca:0e:
         3e:e6:92:bd:82:37:fe:cf:b2:2f:09:41:25:fe:0f:d9:c0:d6:
         72:97:6a:3a:37:14:8b:a8:9a:58:6c:f2:6c
-----BEGIN CERTIFICATE-----
MIIC6TCCAm+gAwIBAgIRAI68s0wZSD2oQaSJWQeNVMcwCgYIKoZIzj0EAwQwDjEM
MAoGA1UEAwwDeXhzMB4XDTIyMDYyMjAzNDMyN1oXDTI0MDkyNDAzNDMyN1owYTEL
MAkGA1UEBhMCQ04xCzAJBgNVBAgMAkNOMQswCQYDVQQHDAJDTjELMAkGA1UECgwC
Q04xCzAJBgNVBAsMAkNOMQswCQYDVQQDDAJDTjERMA8GCSqGSIb3DQEJARYCQ04w
ggEiMA0GCSqGSIb3DQEBAQUAA4IBDwAwggEKAoIBAQCitqDV4rVx8MneiQooS77j
/HZC6K3H24w6JK1zW3w/L07C2wHZOGolOncI6XVWNuaFPlk7K9mO2DOgt6RLtZKE
lMOib5jKnOi3vR9Vb8BlQ2ej3VGtW0FIS0m1nYQ1YLZbEGvLI0ZJ+s6xqZH+jfev
xaB6KJL/J3xull9NZRRwYa3XplhXVWt82xjWA6KDgfClOKtU66yjrZjUzIRnlvrm
LKteH9exDF/bAALARX48AWAwdTxED3Jl4Gf2+EQxbaHJOxJZajakAUWzgzqPB5iD
kDYcniPIwLgEx3kk6yQ1Wwudw/GbOU8G/lGmqqLU9fr9IFdfIKeQ909OOjmCtRj3
AgMBAAGjgY8wgYwwCQYDVR0TBAIwADAdBgNVHQ4EFgQU4+agc79DdfXBPVo1lNBI
cTWAwq8wPgYDVR0jBDcwNYAUF5KDSjRVwATqFp5+ymEPoxpKIpyhEqQQMA4xDDAK
BgNVBAMMA3l4c4IJANOoisShHn87MBMGA1UdJQQMMAoGCCsGAQUFBwMCMAsGA1Ud
DwQEAwIHgDAKBggqhkjOPQQDBANoADBlAjA4polk0XuU+LZ0Muh2QEFaVHkQGhhZ
1O2ckWMmIlqDW5PvwymFjAUZCBKfxT7wPCMCMQDtsa/R+wuBmA429l5QEgnKDj7m
kr2CN/7Psi8JQSX+D9nA1nKXajo3FIuomlhs8mw=
-----END CERTIFICATE-----
