Certificate:
    Data:
        Version: 3 (0x2)
        Serial Number:
            8f:f6:e6:eb:74:24:fa:e2:49:a8:5c:24:5e:b7:50:f5
        Signature Algorithm: ecdsa-with-SHA512
        Issuer: CN=yxs
        Validity
            Not Before: Jun 22 03:46:29 2022 GMT
            Not After : Sep 24 03:46:29 2024 GMT
        Subject: C=CP, ST=Cp, L=CP, O=CP, OU=CP, CN=CP/emailAddress=CP
        Subject Public Key Info:
            Public Key Algorithm: rsaEncryption
                RSA Public-Key: (2048 bit)
                Modulus:
                    00:bf:3f:1b:68:d0:c8:bd:78:69:46:8c:82:6b:f2:
                    48:41:ee:00:e3:9f:fc:76:44:39:f6:df:1b:81:78:
                    c8:ec:46:89:14:16:e2:da:56:22:75:af:1f:06:4a:
                    2d:74:e2:ef:89:0a:24:52:6e:03:d2:4c:87:e1:72:
                    de:9f:4f:d0:a4:93:f1:66:7c:3b:3d:3c:57:b3:0d:
                    69:9b:d2:8c:e0:70:67:e8:5d:d7:1c:98:4f:0b:34:
                    2b:61:f6:85:86:8b:ce:83:f0:a6:9f:e1:4f:66:36:
                    c1:db:24:89:a3:2b:78:84:3e:5d:91:58:f4:45:f3:
                    cc:cf:0a:a9:58:f5:f3:74:f6:3a:61:94:eb:85:79:
                    c7:c6:ab:5b:92:18:30:8b:dc:c2:11:66:c5:20:aa:
                    60:b1:14:d7:52:f5:8a:5a:2c:fd:20:af:1d:d6:32:
                    2f:34:80:c8:6b:26:2c:cc:31:c2:c1:77:a5:eb:d9:
                    a3:14:fc:92:a7:25:2c:d5:5e:20:9c:13:9f:d1:81:
                    e1:f6:d3:1d:43:a6:5d:7a:98:b1:50:93:46:0a:4c:
                    27:74:1c:27:a5:99:eb:5c:e2:a8:01:7a:7f:4c:94:
                    06:92:84:b3:63:35:1f:27:de:d5:bb:88:30:d7:05:
                    5a:25:50:f9:5c:93:d0:67:95:15:dc:89:65:24:cd:
                    b6:95
                Exponent: 65537 (0x10001)
        X509v3 extensions:
            X509v3 Basic Constraints: 
                CA:FALSE
            X509v3 Subject Key Identifier: 
                92:61:E8:7A:F4:2F:FA:18:CF:CD:32:20:54:E6:75:A7:DC:F4:03:6B
            X509v3 Authority Key Identifier: 
                keyid:17:92:83:4A:34:55:C0:04:EA:16:9E:7E:CA:61:0F:A3:1A:4A:22:9C
                DirName:/CN=yxs
                serial:D3:A8:8A:C4:A1:1E:7F:3B

            X509v3 Extended Key Usage: 
                TLS Web Client Authentication
            X509v3 Key Usage: 
                Digital Signature
    Signature Algorithm: ecdsa-with-SHA512
         30:64:02:30:53:36:9e:98:7c:27:34:8c:32:4b:52:5a:02:2d:
         71:57:af:78:89:f5:02:93:e6:39:f1:33:01:45:00:a0:0d:dc:
         df:96:39:1e:09:68:4c:fd:a9:09:ba:7b:eb:89:eb:11:02:30:
         2e:7e:e5:d0:cb:04:ab:af:b4:2f:1d:58:d4:38:30:6a:c6:20:
         ce:3a:da:5d:e9:2a:bd:0f:15:10:87:a6:19:4b:cd:7f:da:f4:
         2e:41:6f:91:51:0e:d0:b4:06:f6:28:33
-----BEGIN CERTIFICATE-----
MIIC6DCCAm+gAwIBAgIRAI/25ut0JPriSahcJF63UPUwCgYIKoZIzj0EAwQwDjEM
MAoGA1UEAwwDeXhzMB4XDTIyMDYyMjAzNDYyOVoXDTI0MDkyNDAzNDYyOVowYTEL
MAkGA1UEBhMCQ1AxCzAJBgNVBAgMAkNwMQswCQYDVQQHDAJDUDELMAkGA1UECgwC
Q1AxCzAJBgNVBAsMAkNQMQswCQYDVQQDDAJDUDERMA8GCSqGSIb3DQEJARYCQ1Aw
ggEiMA0GCSqGSIb3DQEBAQUAA4IBDwAwggEKAoIBAQC/Pxto0Mi9eGlGjIJr8khB
7gDjn/x2RDn23xuBeMjsRokUFuLaViJ1rx8GSi104u+JCiRSbgPSTIfhct6fT9Ck
k/FmfDs9PFezDWmb0ozgcGfoXdccmE8LNCth9oWGi86D8Kaf4U9mNsHbJImjK3iE
Pl2RWPRF88zPCqlY9fN09jphlOuFecfGq1uSGDCL3MIRZsUgqmCxFNdS9YpaLP0g
rx3WMi80gMhrJizMMcLBd6Xr2aMU/JKnJSzVXiCcE5/RgeH20x1Dpl16mLFQk0YK
TCd0HCelmetc4qgBen9MlAaShLNjNR8n3tW7iDDXBVolUPlck9BnlRXciWUkzbaV
AgMBAAGjgY8wgYwwCQYDVR0TBAIwADAdBgNVHQ4EFgQUkmHoevQv+hjPzTIgVOZ1
p9z0A2swPgYDVR0jBDcwNYAUF5KDSjRVwATqFp5+ymEPoxpKIpyhEqQQMA4xDDAK
BgNVBAMMA3l4c4IJANOoisShHn87MBMGA1UdJQQMMAoGCCsGAQUFBwMCMAsGA1Ud
DwQEAwIHgDAKBggqhkjOPQQDBANnADBkAjBTNp6YfCc0jDJLUloCLXFXr3iJ9QKT
5jnxMwFFAKAN3N+WOR4JaEz9qQm6e+uJ6xECMC5+5dDLBKuvtC8dWNQ4MGrGIM46
2l3pKr0PFRCHphlLzX/a9C5Bb5FRDtC0BvYoMw==
-----END CERTIFICATE-----
