Certificate:
    Data:
        Version: 3 (0x2)
        Serial Number:
            96:34:a2:10:fe:0d:bc:1f:6a:12:db:9f:f1:2f:24:de
        Signature Algorithm: ecdsa-with-SHA512
        Issuer: CN=yxs
        Validity
            Not Before: Jun 22 02:34:31 2022 GMT
            Not After : Sep 24 02:34:31 2024 GMT
        Subject: C=CN, ST=GD, L=SZ, O=PKU, OU=SECE, CN=client1/emailAddress=client1@pku.edu.cn
        Subject Public Key Info:
            Public Key Algorithm: rsaEncryption
                RSA Public-Key: (2048 bit)
                Modulus:
                    00:c6:2b:5d:86:af:2b:22:3f:98:5f:28:40:2d:a9:
                    c9:4a:c6:c9:26:13:4e:54:0f:a7:f9:4a:ce:19:68:
                    c5:cf:e8:92:19:7d:3e:47:c9:fd:66:d6:9f:51:3d:
                    32:7f:c3:0d:74:d5:dd:cd:cb:12:e4:5c:d6:e5:c4:
                    1a:8d:eb:63:52:24:03:c0:a1:18:1b:2a:58:b0:ba:
                    6a:12:62:a6:83:c3:1a:f0:69:61:1d:44:61:5b:86:
                    d5:3e:a3:c3:06:49:52:44:b7:a6:7d:48:10:11:16:
                    4e:a2:57:81:f7:04:72:6e:1e:0a:c3:b4:ca:a0:56:
                    e1:cd:31:c2:b3:19:6c:68:3b:8e:ae:4d:14:d3:6d:
                    60:dc:f3:27:f8:f0:3a:49:d2:84:61:90:8b:95:f4:
                    19:03:bd:1e:62:ab:e5:86:6f:bd:ca:02:eb:87:92:
                    69:bb:9d:a6:b6:dd:c2:95:d2:2f:60:a9:e5:10:72:
                    91:9b:18:da:0d:74:be:9a:4c:68:72:37:64:87:7c:
                    ed:3b:cf:c5:1e:c0:22:0a:7c:15:3a:ce:1c:9b:b5:
                    36:3b:03:61:29:f3:18:0b:83:af:8a:90:ec:ac:a8:
                    ac:a7:36:09:e6:ec:d3:c2:50:61:9b:41:85:71:fb:
                    e5:2e:79:49:a7:3f:d9:5f:00:ef:f6:b3:4a:18:57:
                    39:71
                Exponent: 65537 (0x10001)
        X509v3 extensions:
            X509v3 Basic Constraints: 
                CA:FALSE
            X509v3 Subject Key Identifier: 
                17:94:DE:D3:E5:84:B9:03:FC:D2:AC:56:77:01:D8:2C:5E:51:44:2D
            X509v3 Authority Key Identifier: 
                keyid:17:92:83:4A:34:55:C0:04:EA:16:9E:7E:CA:61:0F:A3:1A:4A:22:9C
                DirName:/CN=yxs
                serial:D3:A8:8A:C4:A1:1E:7F:3B

            X509v3 Extended Key Usage: 
                TLS Web Client Authentication
            X509v3 Key Usage: 
                Digital Signature
    Signature Algorithm: ecdsa-with-SHA512
         30:65:02:31:00:96:76:5b:ff:e2:c5:c0:32:95:72:04:5d:78:
         84:7b:ed:80:a8:f8:ff:ca:d1:ee:5c:bf:e5:f3:56:f2:8a:b9:
         d0:a9:64:2f:2a:af:0e:f9:1d:7b:35:84:c7:78:f0:bb:69:02:
         30:5f:6d:dc:f6:2c:d0:c5:1c:03:ed:9d:dd:b0:a3:f9:47:af:
         0d:3f:ed:95:b9:7c:22:6e:2c:1c:de:6e:52:9d:00:81:0a:30:
         a8:09:8b:06:b2:4d:62:7f:2c:65:d6:da:ca
-----BEGIN CERTIFICATE-----
MIIDATCCAoegAwIBAgIRAJY0ohD+DbwfahLbn/EvJN4wCgYIKoZIzj0EAwQwDjEM
MAoGA1UEAwwDeXhzMB4XDTIyMDYyMjAyMzQzMVoXDTI0MDkyNDAyMzQzMVoweTEL
MAkGA1UEBhMCQ04xCzAJBgNVBAgMAkdEMQswCQYDVQQHDAJTWjEMMAoGA1UECgwD
UEtVMQ0wCwYDVQQLDARTRUNFMRAwDgYDVQQDDAdjbGllbnQxMSEwHwYJKoZIhvcN
AQkBFhJjbGllbnQxQHBrdS5lZHUuY24wggEiMA0GCSqGSIb3DQEBAQUAA4IBDwAw
ggEKAoIBAQDGK12GrysiP5hfKEAtqclKxskmE05UD6f5Ss4ZaMXP6JIZfT5Hyf1m
1p9RPTJ/ww101d3NyxLkXNblxBqN62NSJAPAoRgbKliwumoSYqaDwxrwaWEdRGFb
htU+o8MGSVJEt6Z9SBARFk6iV4H3BHJuHgrDtMqgVuHNMcKzGWxoO46uTRTTbWDc
8yf48DpJ0oRhkIuV9BkDvR5iq+WGb73KAuuHkmm7naa23cKV0i9gqeUQcpGbGNoN
dL6aTGhyN2SHfO07z8UewCIKfBU6zhybtTY7A2Ep8xgLg6+KkOysqKynNgnm7NPC
UGGbQYVx++UueUmnP9lfAO/2s0oYVzlxAgMBAAGjgY8wgYwwCQYDVR0TBAIwADAd
BgNVHQ4EFgQUF5Te0+WEuQP80qxWdwHYLF5RRC0wPgYDVR0jBDcwNYAUF5KDSjRV
wATqFp5+ymEPoxpKIpyhEqQQMA4xDDAKBgNVBAMMA3l4c4IJANOoisShHn87MBMG
A1UdJQQMMAoGCCsGAQUFBwMCMAsGA1UdDwQEAwIHgDAKBggqhkjOPQQDBANoADBl
AjEAlnZb/+LFwDKVcgRdeIR77YCo+P/K0e5cv+XzVvKKudCpZC8qrw75HXs1hMd4
8LtpAjBfbdz2LNDFHAPtnd2wo/lHrw0/7ZW5fCJuLBzeblKdAIEKMKgJiwayTWJ/
LGXW2so=
-----END CERTIFICATE-----
