Certificate:
    Data:
        Version: 3 (0x2)
        Serial Number:
            9b:ac:64:9b:fd:9b:6a:72:76:a8:f8:4d:56:10:91:f7
        Signature Algorithm: ecdsa-with-SHA512
        Issuer: CN=yxs
        Validity
            Not Before: Jun 22 02:33:45 2022 GMT
            Not After : Sep 24 02:33:45 2024 GMT
        Subject: C=CN, ST=GD, L=SZ, O=PKU, OU=SECE, CN=server/emailAddress=server@pku.edu.cn
        Subject Public Key Info:
            Public Key Algorithm: rsaEncryption
                RSA Public-Key: (2048 bit)
                Modulus:
                    00:d8:7c:87:de:9a:eb:af:1f:81:c4:f3:9a:e4:32:
                    d2:ae:85:c1:07:d5:26:82:66:10:8a:cb:e7:1b:74:
                    3c:06:4b:49:72:46:8f:59:0d:ab:e4:e6:8b:28:7d:
                    99:56:10:18:cc:d0:c8:ea:17:58:80:dc:10:fa:54:
                    d9:5e:f8:24:e4:1d:7a:04:26:31:97:1d:14:c8:87:
                    b1:fe:42:d1:80:fb:09:2c:c2:e0:8d:03:40:ea:ce:
                    76:c3:ee:3c:e6:cf:00:84:41:c6:8d:f5:ef:b9:a0:
                    6c:58:2a:31:36:f3:a4:ef:d3:2c:95:74:4f:0a:5e:
                    5c:cf:1b:5a:aa:0a:bc:ad:c6:e8:52:6c:40:ae:da:
                    df:8c:87:91:6f:ac:d7:43:b5:41:21:d8:03:5b:30:
                    b0:a8:dd:b9:72:c8:1c:af:ab:07:d4:35:79:26:c6:
                    36:3a:6b:d7:c9:ce:2e:6a:84:a6:5b:8d:cc:cf:48:
                    56:fe:5e:1e:c2:cf:74:f4:d0:cb:58:33:95:47:91:
                    78:a1:49:bb:52:11:6d:e7:b8:d2:1e:70:ea:f7:a2:
                    f0:c2:4a:29:ff:35:12:21:bc:4e:ac:6c:1e:6e:85:
                    f7:ec:f6:9d:7e:32:d0:53:44:f9:5c:6f:86:7e:fd:
                    1e:1f:1c:d3:93:21:b2:69:85:31:ff:ca:7f:62:64:
                    23:53
                Exponent: 65537 (0x10001)
        X509v3 extensions:
            X509v3 Basic Constraints: 
                CA:FALSE
            X509v3 Subject Key Identifier: 
                2E:BD:00:74:CE:B1:37:67:7D:A4:4A:65:3D:18:58:15:45:AD:89:A7
            X509v3 Authority Key Identifier: 
                keyid:17:92:83:4A:34:55:C0:04:EA:16:9E:7E:CA:61:0F:A3:1A:4A:22:9C
                DirName:/CN=yxs
                serial:D3:A8:8A:C4:A1:1E:7F:3B

            X509v3 Extended Key Usage: 
                TLS Web Client Authentication
            X509v3 Key Usage: 
                Digital Signature
    Signature Algorithm: ecdsa-with-SHA512
         30:64:02:30:76:2c:d0:b8:5d:af:6e:76:6e:d6:6c:a4:8c:02:
         a6:54:9c:29:47:5c:8b:11:af:cc:5c:9d:a2:aa:1c:c6:1d:03:
         06:dd:94:e7:ed:69:95:bc:9e:37:4a:8c:3a:d4:78:0a:02:30:
         0b:f3:0d:ef:b1:50:e5:3a:6d:32:ef:f0:3f:9a:4f:0d:a6:72:
         69:5a:f4:4d:76:5f:91:6d:ce:71:30:f4:d7:07:0b:7d:2b:3b:
         3e:c5:f2:e1:5e:3a:ad:93:99:cb:17:f5
-----BEGIN CERTIFICATE-----
MIIC/jCCAoWgAwIBAgIRAJusZJv9m2pydqj4TVYQkfcwCgYIKoZIzj0EAwQwDjEM
MAoGA1UEAwwDeXhzMB4XDTIyMDYyMjAyMzM0NVoXDTI0MDkyNDAyMzM0NVowdzEL
MAkGA1UEBhMCQ04xCzAJBgNVBAgMAkdEMQswCQYDVQQHDAJTWjEMMAoGA1UECgwD
UEtVMQ0wCwYDVQQLDARTRUNFMQ8wDQYDVQQDDAZzZXJ2ZXIxIDAeBgkqhkiG9w0B
CQEWEXNlcnZlckBwa3UuZWR1LmNuMIIBIjANBgkqhkiG9w0BAQEFAAOCAQ8AMIIB
CgKCAQEA2HyH3prrrx+BxPOa5DLSroXBB9UmgmYQisvnG3Q8BktJckaPWQ2r5OaL
KH2ZVhAYzNDI6hdYgNwQ+lTZXvgk5B16BCYxlx0UyIex/kLRgPsJLMLgjQNA6s52
w+485s8AhEHGjfXvuaBsWCoxNvOk79MslXRPCl5czxtaqgq8rcboUmxArtrfjIeR
b6zXQ7VBIdgDWzCwqN25csgcr6sH1DV5JsY2OmvXyc4uaoSmW43Mz0hW/l4ews90
9NDLWDOVR5F4oUm7UhFt57jSHnDq96Lwwkop/zUSIbxOrGweboX37PadfjLQU0T5
XG+Gfv0eHxzTkyGyaYUx/8p/YmQjUwIDAQABo4GPMIGMMAkGA1UdEwQCMAAwHQYD
VR0OBBYEFC69AHTOsTdnfaRKZT0YWBVFrYmnMD4GA1UdIwQ3MDWAFBeSg0o0VcAE
6haefsphD6MaSiKcoRKkEDAOMQwwCgYDVQQDDAN5eHOCCQDTqIrEoR5/OzATBgNV
HSUEDDAKBggrBgEFBQcDAjALBgNVHQ8EBAMCB4AwCgYIKoZIzj0EAwQDZwAwZAIw
dizQuF2vbnZu1mykjAKmVJwpR1yLEa/MXJ2iqhzGHQMG3ZTn7WmVvJ43Sow61HgK
AjAL8w3vsVDlOm0y7/A/mk8NpnJpWvRNdl+Rbc5xMPTXBwt9Kzs+xfLhXjqtk5nL
F/U=
-----END CERTIFICATE-----
