Certificate:
    Data:
        Version: 3 (0x2)
        Serial Number:
            9c:7e:84:16:67:57:0f:8f:bb:48:97:3e:49:07:62:75
    Signature Algorithm: ecdsa-with-SHA512
        Issuer: CN=yxs
        Validity
            Not Before: Jun 21 01:47:53 2022 GMT
            Not After : Sep 23 01:47:53 2024 GMT
        Subject: C=CN, ST=GD, L=SZ, O=PKUSZ, CN=Servertest
        Subject Public Key Info:
            Public Key Algorithm: rsaEncryption
                Public-Key: (2048 bit)
                Modulus:
                    00:d7:3f:55:4a:f6:94:53:89:3f:31:02:a8:21:75:
                    dc:72:c3:79:d1:0e:60:88:0d:31:77:6c:34:66:89:
                    15:4c:cf:5a:bc:5f:b5:d8:d8:89:b8:b3:c2:44:d6:
                    13:42:01:09:46:38:e0:8c:ab:ec:9d:14:a7:17:f2:
                    fb:bc:08:1f:12:96:cf:74:96:f9:49:00:d1:c2:23:
                    8b:ae:d3:0e:2a:da:35:21:83:05:93:29:9e:07:31:
                    37:95:98:34:6f:68:77:4d:ca:01:5d:70:ce:b7:e7:
                    a2:7b:89:27:d6:92:d7:51:e2:c8:2c:dd:6f:e1:9f:
                    6f:ee:e2:32:58:ea:8f:7b:f0:69:06:46:0b:0a:e9:
                    9d:c2:e7:13:82:a8:6d:22:4d:5c:cb:27:a5:d8:b2:
                    f7:31:bb:f6:92:5b:5e:14:32:2f:08:c8:35:35:01:
                    ef:84:ec:47:94:40:84:bd:d7:84:9a:97:72:85:0f:
                    d8:e5:9f:be:81:9f:b5:ed:14:92:23:6d:bd:eb:43:
                    de:76:a1:9c:06:8e:37:ec:93:64:fb:60:17:ad:5c:
                    0d:bb:35:ed:bd:0b:18:84:42:6a:9f:83:be:a1:82:
                    15:91:c9:de:de:20:47:b2:c0:89:ba:c9:e9:64:03:
                    59:48:3d:85:06:aa:de:4c:9b:23:61:98:cd:05:ef:
                    53:89
                Exponent: 65537 (0x10001)
        X509v3 extensions:
            X509v3 Basic Constraints: 
                CA:FALSE
            X509v3 Subject Key Identifier: 
                72:FF:56:B8:53:38:7F:2D:62:FC:B0:3C:F6:E5:32:6E:90:AB:06:1D
            X509v3 Authority Key Identifier: 
                keyid:17:92:83:4A:34:55:C0:04:EA:16:9E:7E:CA:61:0F:A3:1A:4A:22:9C
                DirName:/CN=yxs
                serial:D3:A8:8A:C4:A1:1E:7F:3B

            X509v3 Extended Key Usage: 
                TLS Web Server Authentication
            X509v3 Key Usage: 
                Digital Signature, Key Encipherment
            X509v3 Subject Alternative Name: 
                DNS:Servertest
    Signature Algorithm: ecdsa-with-SHA512
         30:66:02:31:00:be:96:ed:8a:19:51:95:c2:10:a1:9e:4d:92:
         c0:bc:88:18:9a:38:5a:d9:43:f5:e0:3f:3e:9c:e7:79:d7:53:
         5f:79:55:05:3d:b1:d1:11:18:03:9a:96:72:a9:83:39:82:02:
         31:00:b0:bb:20:a0:c3:0e:3a:72:de:c7:b5:37:12:6e:f0:43:
         a7:57:24:5f:45:2b:b6:a2:0a:59:9a:6b:7f:51:c5:34:29:60:
         af:23:97:94:73:3d:de:e1:13:b5:15:97:6e:cc
-----BEGIN CERTIFICATE-----
MIIC7DCCAnGgAwIBAgIRAJx+hBZnVw+Pu0iXPkkHYnUwCgYIKoZIzj0EAwQwDjEM
MAoGA1UEAwwDeXhzMB4XDTIyMDYyMTAxNDc1M1oXDTI0MDkyMzAxNDc1M1owTDEL
MAkGA1UEBhMCQ04xCzAJBgNVBAgMAkdEMQswCQYDVQQHDAJTWjEOMAwGA1UECgwF
UEtVU1oxEzARBgNVBAMMClNlcnZlcnRlc3QwggEiMA0GCSqGSIb3DQEBAQUAA4IB
DwAwggEKAoIBAQDXP1VK9pRTiT8xAqghddxyw3nRDmCIDTF3bDRmiRVMz1q8X7XY
2Im4s8JE1hNCAQlGOOCMq+ydFKcX8vu8CB8Sls90lvlJANHCI4uu0w4q2jUhgwWT
KZ4HMTeVmDRvaHdNygFdcM6356J7iSfWktdR4sgs3W/hn2/u4jJY6o978GkGRgsK
6Z3C5xOCqG0iTVzLJ6XYsvcxu/aSW14UMi8IyDU1Ae+E7EeUQIS914Sal3KFD9jl
n76Bn7XtFJIjbb3rQ952oZwGjjfsk2T7YBetXA27Ne29CxiEQmqfg76hghWRyd7e
IEeywIm6yelkA1lIPYUGqt5MmyNhmM0F71OJAgMBAAGjgaYwgaMwCQYDVR0TBAIw
ADAdBgNVHQ4EFgQUcv9WuFM4fy1i/LA89uUybpCrBh0wPgYDVR0jBDcwNYAUF5KD
SjRVwATqFp5+ymEPoxpKIpyhEqQQMA4xDDAKBgNVBAMMA3l4c4IJANOoisShHn87
MBMGA1UdJQQMMAoGCCsGAQUFBwMBMAsGA1UdDwQEAwIFoDAVBgNVHREEDjAMggpT
ZXJ2ZXJ0ZXN0MAoGCCqGSM49BAMEA2kAMGYCMQC+lu2KGVGVwhChnk2SwLyIGJo4
WtlD9eA/PpzneddTX3lVBT2x0REYA5qWcqmDOYICMQCwuyCgww46ct7HtTcSbvBD
p1ckX0UrtqIKWZprf1HFNClgryOXlHM93uETtRWXbsw=
-----END CERTIFICATE-----
