Certificate:
    Data:
        Version: 3 (0x2)
        Serial Number:
            a6:66:81:ed:74:f7:62:59:2d:fc:32:df:21:6d:8e:d2
        Signature Algorithm: ecdsa-with-SHA512
        Issuer: CN=yxs
        Validity
            Not Before: Jun 22 02:23:59 2022 GMT
            Not After : Sep 24 02:23:59 2024 GMT
        Subject: C=CN, ST=GD, L=SZ, O=PKU, OU=SECE, CN=client1/emailAddress=client1@pku.edu.cn
        Subject Public Key Info:
            Public Key Algorithm: rsaEncryption
                RSA Public-Key: (2048 bit)
                Modulus:
                    00:b0:70:3d:7c:42:c4:70:3c:f0:4c:bf:4c:5a:32:
                    ed:22:48:67:0b:13:5c:72:74:bf:5b:a6:59:20:72:
                    5e:4a:26:96:62:c2:f1:33:de:64:87:f0:b0:1f:3e:
                    f5:1a:48:4b:cb:ec:2e:ab:52:42:d0:9e:5b:e7:35:
                    1b:a9:88:04:ad:4f:1d:62:5a:fd:e3:79:4f:72:2f:
                    62:85:11:d4:91:85:f6:b3:35:7a:c4:0c:f9:1a:59:
                    11:14:eb:7e:80:cb:21:aa:98:c3:32:aa:ca:c6:29:
                    70:0a:54:72:04:8a:33:44:74:e6:bd:fb:b1:14:bd:
                    26:e1:7c:12:16:8b:f6:61:75:93:05:d1:ca:c8:57:
                    9b:a0:61:3f:d4:82:73:52:ca:aa:ee:34:60:d9:67:
                    17:d4:07:a2:71:12:8b:97:48:3c:65:f7:13:05:a0:
                    c3:a3:ff:cf:80:c9:60:2c:e7:63:17:c2:a5:62:0a:
                    26:9e:19:e7:26:32:72:f7:12:ac:0e:93:53:ef:64:
                    d7:35:80:1d:2c:bd:9b:c3:84:4c:24:88:e5:b4:7d:
                    2c:33:35:86:d0:de:8e:74:94:dd:dd:84:ef:7c:2c:
                    1d:65:dd:4d:d5:00:fc:db:d8:ea:4f:5f:4a:3e:72:
                    b4:f7:6b:38:a4:fe:32:16:67:92:ac:0a:a4:a3:80:
                    86:c9
                Exponent: 65537 (0x10001)
        X509v3 extensions:
            X509v3 Basic Constraints: 
                CA:FALSE
            X509v3 Subject Key Identifier: 
                04:62:36:BA:64:26:85:12:3F:9F:21:9B:C8:6F:75:54:BC:D6:99:BD
            X509v3 Authority Key Identifier: 
                keyid:17:92:83:4A:34:55:C0:04:EA:16:9E:7E:CA:61:0F:A3:1A:4A:22:9C
                DirName:/CN=yxs
                serial:D3:A8:8A:C4:A1:1E:7F:3B

            X509v3 Extended Key Usage: 
                TLS Web Client Authentication
            X509v3 Key Usage: 
                Digital Signature
    Signature Algorithm: ecdsa-with-SHA512
         30:66:02:31:00:f2:9f:34:05:9f:4d:2c:02:b4:29:af:ff:69:
         7d:f3:a4:0f:ab:f3:5c:a1:14:6f:03:b3:30:de:43:f6:4f:71:
         c4:2e:a8:92:be:67:cb:eb:23:a7:cf:8d:7b:cb:56:43:b0:02:
         31:00:9d:78:46:55:4b:d9:46:bd:92:6f:5c:0b:71:c6:41:77:
         27:36:0c:7e:57:2b:cf:e2:e0:23:e6:83:37:ba:73:78:bd:25:
         60:a8:b0:4e:27:9d:ba:d5:f7:7c:f8:b9:b1:e2
-----BEGIN CERTIFICATE-----
MIIDAjCCAoegAwIBAgIRAKZmge1092JZLfwy3yFtjtIwCgYIKoZIzj0EAwQwDjEM
MAoGA1UEAwwDeXhzMB4XDTIyMDYyMjAyMjM1OVoXDTI0MDkyNDAyMjM1OVoweTEL
MAkGA1UEBhMCQ04xCzAJBgNVBAgMAkdEMQswCQYDVQQHDAJTWjEMMAoGA1UECgwD
UEtVMQ0wCwYDVQQLDARTRUNFMRAwDgYDVQQDDAdjbGllbnQxMSEwHwYJKoZIhvcN
AQkBFhJjbGllbnQxQHBrdS5lZHUuY24wggEiMA0GCSqGSIb3DQEBAQUAA4IBDwAw
ggEKAoIBAQCwcD18QsRwPPBMv0xaMu0iSGcLE1xydL9bplkgcl5KJpZiwvEz3mSH
8LAfPvUaSEvL7C6rUkLQnlvnNRupiAStTx1iWv3jeU9yL2KFEdSRhfazNXrEDPka
WREU636AyyGqmMMyqsrGKXAKVHIEijNEdOa9+7EUvSbhfBIWi/ZhdZMF0crIV5ug
YT/UgnNSyqruNGDZZxfUB6JxEouXSDxl9xMFoMOj/8+AyWAs52MXwqViCiaeGecm
MnL3EqwOk1PvZNc1gB0svZvDhEwkiOW0fSwzNYbQ3o50lN3dhO98LB1l3U3VAPzb
2OpPX0o+crT3azik/jIWZ5KsCqSjgIbJAgMBAAGjgY8wgYwwCQYDVR0TBAIwADAd
BgNVHQ4EFgQUBGI2umQmhRI/nyGbyG91VLzWmb0wPgYDVR0jBDcwNYAUF5KDSjRV
wATqFp5+ymEPoxpKIpyhEqQQMA4xDDAKBgNVBAMMA3l4c4IJANOoisShHn87MBMG
A1UdJQQMMAoGCCsGAQUFBwMCMAsGA1UdDwQEAwIHgDAKBggqhkjOPQQDBANpADBm
AjEA8p80BZ9NLAK0Ka//aX3zpA+r81yhFG8DszDeQ/ZPccQuqJK+Z8vrI6fPjXvL
VkOwAjEAnXhGVUvZRr2Sb1wLccZBdyc2DH5XK8/i4CPmgze6c3i9JWCosE4nnbrV
93z4ubHi
-----END CERTIFICATE-----
