Certificate:
    Data:
        Version: 3 (0x2)
        Serial Number:
            ad:e2:3f:98:5b:a5:33:9d:e1:2f:0a:27:8f:80:ec:19
        Signature Algorithm: ecdsa-with-SHA512
        Issuer: CN=yxs
        Validity
            Not Before: Jun 22 01:32:20 2022 GMT
            Not After : Sep 24 01:32:20 2024 GMT
        Subject: C=CN, ST=GD, L=GZ, O=PKU, OU=SECE, CN=course/emailAddress=123@pku
        Subject Public Key Info:
            Public Key Algorithm: rsaEncryption
                RSA Public-Key: (2048 bit)
                Modulus:
                    00:8c:15:9f:2c:d5:20:d5:b0:a9:b0:e2:09:8c:66:
                    68:cb:63:88:9d:76:f1:20:04:0c:46:6b:2d:58:c1:
                    87:91:c4:e3:5e:56:bb:f0:21:c0:12:ce:6c:2c:b4:
                    7a:c5:ad:6e:27:1c:5f:6d:c5:57:ce:af:f6:87:d8:
                    2f:98:9e:fc:d4:43:84:f0:26:b2:a8:3d:21:a3:7d:
                    2d:3c:2e:12:4f:de:65:c5:26:36:4d:fb:f2:c6:8f:
                    7a:3d:d1:ce:68:ee:7c:a1:47:7f:e7:9c:e3:04:70:
                    e8:2d:3f:77:fe:6e:5b:17:12:18:bd:b4:2d:56:b1:
                    2f:a2:45:fc:99:0b:20:0f:0a:0c:fd:30:6b:94:28:
                    da:40:c1:0f:37:f3:f0:f3:b3:65:44:0c:22:1e:b5:
                    0f:d9:14:dd:fb:74:0c:71:88:20:56:a5:1c:9c:26:
                    91:2e:05:d4:a7:78:78:c8:9c:b8:a4:01:76:80:13:
                    95:9a:4a:ea:9b:7a:0b:b3:1a:82:82:fb:48:ca:9b:
                    7c:77:94:cf:1b:f0:f7:f3:5e:f5:73:90:6d:ce:54:
                    5b:ac:02:6b:bc:0f:f3:51:1d:89:7f:a4:fb:e3:cd:
                    98:63:66:d1:31:07:2b:64:7f:06:dc:ce:94:ea:1b:
                    ea:42:50:ec:c7:c2:35:10:c0:ce:ac:5e:5c:06:54:
                    68:d1
                Exponent: 65537 (0x10001)
        X509v3 extensions:
            X509v3 Basic Constraints: 
                CA:FALSE
            X509v3 Subject Key Identifier: 
                7C:4D:DE:3F:BF:69:99:85:3F:6C:67:A8:B9:8D:86:0C:6A:DC:21:82
            X509v3 Authority Key Identifier: 
                keyid:17:92:83:4A:34:55:C0:04:EA:16:9E:7E:CA:61:0F:A3:1A:4A:22:9C
                DirName:/CN=yxs
                serial:D3:A8:8A:C4:A1:1E:7F:3B

            X509v3 Extended Key Usage: 
                TLS Web Client Authentication
            X509v3 Key Usage: 
                Digital Signature
    Signature Algorithm: ecdsa-with-SHA512
         30:65:02:31:00:fb:6a:58:31:da:9c:e0:4d:95:3d:cf:c4:9c:
         1d:e9:b2:3b:8f:fc:b6:ec:8c:4f:c7:d2:df:20:6b:6e:85:dd:
         6a:4b:5d:bd:f8:4d:ae:fa:12:75:a4:a9:5a:d2:8c:2a:f7:02:
         30:15:e5:71:e0:76:96:53:87:02:53:b5:0e:14:a2:a4:99:9c:
         5d:65:07:62:aa:91:bd:60:bb:9d:e6:05:de:00:0e:4a:81:bf:
         e4:cc:15:10:79:8f:48:88:b7:f6:1e:fa:0c
-----BEGIN CERTIFICATE-----
MIIC9TCCAnugAwIBAgIRAK3iP5hbpTOd4S8KJ4+A7BkwCgYIKoZIzj0EAwQwDjEM
MAoGA1UEAwwDeXhzMB4XDTIyMDYyMjAxMzIyMFoXDTI0MDkyNDAxMzIyMFowbTEL
MAkGA1UEBhMCQ04xCzAJBgNVBAgMAkdEMQswCQYDVQQHDAJHWjEMMAoGA1UECgwD
UEtVMQ0wCwYDVQQLDARTRUNFMQ8wDQYDVQQDDAZjb3Vyc2UxFjAUBgkqhkiG9w0B
CQEWBzEyM0Bwa3UwggEiMA0GCSqGSIb3DQEBAQUAA4IBDwAwggEKAoIBAQCMFZ8s
1SDVsKmw4gmMZmjLY4iddvEgBAxGay1YwYeRxONeVrvwIcASzmwstHrFrW4nHF9t
xVfOr/aH2C+YnvzUQ4TwJrKoPSGjfS08LhJP3mXFJjZN+/LGj3o90c5o7nyhR3/n
nOMEcOgtP3f+blsXEhi9tC1WsS+iRfyZCyAPCgz9MGuUKNpAwQ838/Dzs2VEDCIe
tQ/ZFN37dAxxiCBWpRycJpEuBdSneHjInLikAXaAE5WaSuqbeguzGoKC+0jKm3x3
lM8b8PfzXvVzkG3OVFusAmu8D/NRHYl/pPvjzZhjZtExBytkfwbczpTqG+pCUOzH
wjUQwM6sXlwGVGjRAgMBAAGjgY8wgYwwCQYDVR0TBAIwADAdBgNVHQ4EFgQUfE3e
P79pmYU/bGeouY2GDGrcIYIwPgYDVR0jBDcwNYAUF5KDSjRVwATqFp5+ymEPoxpK
IpyhEqQQMA4xDDAKBgNVBAMMA3l4c4IJANOoisShHn87MBMGA1UdJQQMMAoGCCsG
AQUFBwMCMAsGA1UdDwQEAwIHgDAKBggqhkjOPQQDBANoADBlAjEA+2pYMdqc4E2V
Pc/EnB3psjuP/LbsjE/H0t8ga26F3WpLXb34Ta76EnWkqVrSjCr3AjAV5XHgdpZT
hwJTtQ4UoqSZnF1lB2Kqkb1gu53mBd4ADkqBv+TMFRB5j0iIt/Ye+gw=
-----END CERTIFICATE-----
