Certificate:
    Data:
        Version: 3 (0x2)
        Serial Number:
            ba:fe:17:77:ac:f8:57:5e:6f:2a:9a:f9:f1:9b:29:85
        Signature Algorithm: ecdsa-with-SHA512
        Issuer: CN=yxs
        Validity
            Not Before: Jun 22 01:30:26 2022 GMT
            Not After : Sep 24 01:30:26 2024 GMT
        Subject: C=CN, ST=GD, L=SZ, O=PKUSZ, CN=client
        Subject Public Key Info:
            Public Key Algorithm: rsaEncryption
                RSA Public-Key: (1024 bit)
                Modulus:
                    00:bf:5d:ac:73:c5:7f:20:c3:0f:9e:02:e5:14:7a:
                    ee:38:66:7f:30:ac:08:b0:40:b3:dc:e1:ba:36:9c:
                    70:7a:94:68:3b:17:89:e8:4f:ad:43:21:9c:4a:20:
                    29:16:18:63:d2:30:2a:cb:f7:a3:2b:c6:e6:89:bf:
                    d7:16:6a:68:91:0f:d1:61:e2:aa:2a:cd:99:89:92:
                    44:d9:65:48:f5:d5:c7:0b:f7:97:b7:4d:00:18:15:
                    6d:ca:5a:9a:15:45:18:64:61:9b:1a:a4:29:d3:5f:
                    79:2f:ca:05:b5:c4:6a:b7:58:3c:40:95:c3:02:6f:
                    7d:48:20:0c:b4:f4:a5:55:8b
                Exponent: 65537 (0x10001)
        X509v3 extensions:
            X509v3 Basic Constraints: 
                CA:FALSE
            X509v3 Subject Key Identifier: 
                97:D0:3A:13:EB:3F:20:4E:4F:32:30:EC:F0:A6:1C:4F:E6:7D:C1:E7
            X509v3 Authority Key Identifier: 
                keyid:17:92:83:4A:34:55:C0:04:EA:16:9E:7E:CA:61:0F:A3:1A:4A:22:9C
                DirName:/CN=yxs
                serial:D3:A8:8A:C4:A1:1E:7F:3B

            X509v3 Extended Key Usage: 
                TLS Web Client Authentication
            X509v3 Key Usage: 
                Digital Signature
    Signature Algorithm: ecdsa-with-SHA512
         30:66:02:31:00:e1:bf:6a:7b:ee:dc:60:96:94:8d:9d:6b:2d:
         7c:8a:c4:e5:95:76:ad:8e:8f:41:86:43:86:c0:fe:f4:ce:d5:
         83:0f:9b:95:3a:37:7d:7b:1b:42:02:44:f3:a8:a3:84:88:02:
         31:00:b1:39:fe:c7:1e:33:7c:62:7a:7b:70:0e:b7:dd:93:bd:
         79:cc:94:ee:16:b4:dc:2b:a4:a5:b3:96:d3:77:1a:47:ca:72:
         a8:28:80:a7:ee:a1:73:98:eb:a4:c9:aa:e8:e8
-----BEGIN CERTIFICATE-----
MIICTTCCAdKgAwIBAgIRALr+F3es+Fdebyqa+fGbKYUwCgYIKoZIzj0EAwQwDjEM
MAoGA1UEAwwDeXhzMB4XDTIyMDYyMjAxMzAyNloXDTI0MDkyNDAxMzAyNlowSDEL
MAkGA1UEBhMCQ04xCzAJBgNVBAgMAkdEMQswCQYDVQQHDAJTWjEOMAwGA1UECgwF
UEtVU1oxDzANBgNVBAMMBmNsaWVudDCBnzANBgkqhkiG9w0BAQEFAAOBjQAwgYkC
gYEAv12sc8V/IMMPngLlFHruOGZ/MKwIsECz3OG6NpxwepRoOxeJ6E+tQyGcSiAp
Fhhj0jAqy/ejK8bmib/XFmpokQ/RYeKqKs2ZiZJE2WVI9dXHC/eXt00AGBVtylqa
FUUYZGGbGqQp0195L8oFtcRqt1g8QJXDAm99SCAMtPSlVYsCAwEAAaOBjzCBjDAJ
BgNVHRMEAjAAMB0GA1UdDgQWBBSX0DoT6z8gTk8yMOzwphxP5n3B5zA+BgNVHSME
NzA1gBQXkoNKNFXABOoWnn7KYQ+jGkoinKESpBAwDjEMMAoGA1UEAwwDeXhzggkA
06iKxKEefzswEwYDVR0lBAwwCgYIKwYBBQUHAwIwCwYDVR0PBAQDAgeAMAoGCCqG
SM49BAMEA2kAMGYCMQDhv2p77txglpSNnWstfIrE5ZV2rY6PQYZDhsD+9M7Vgw+b
lTo3fXsbQgJE86ijhIgCMQCxOf7HHjN8Ynp7cA633ZO9ecyU7ha03CukpbOW03ca
R8pyqCiAp+6hc5jrpMmq6Og=
-----END CERTIFICATE-----
