Certificate:
    Data:
        Version: 3 (0x2)
        Serial Number:
            bf:f2:7a:fd:bc:dd:7f:20:4d:4a:48:6d:2c:01:33:fe
        Signature Algorithm: ecdsa-with-SHA512
        Issuer: CN=yxs
        Validity
            Not Before: Jun 21 20:41:03 2022 GMT
            Not After : Sep 23 20:41:03 2024 GMT
        Subject: C=CN, ST=GD, L=SZ, O=yxs, CN=com
        Subject Public Key Info:
            Public Key Algorithm: rsaEncryption
                RSA Public-Key: (2048 bit)
                Modulus:
                    00:e2:e2:a0:99:4c:22:cc:ff:21:62:4d:f9:aa:d4:
                    ae:02:89:37:38:b9:69:bd:0f:ae:3a:20:40:a0:98:
                    54:4b:83:4a:04:10:77:dd:a1:c5:10:e2:86:22:c9:
                    1c:2f:84:ac:78:3f:c9:45:8e:fb:1e:ea:d7:c1:db:
                    5d:a3:09:83:a4:38:fe:7f:6d:ee:01:81:b3:9a:bf:
                    c1:56:43:58:02:60:45:20:86:da:3d:98:c9:e1:c5:
                    cb:e4:ba:1a:70:36:14:c2:4c:c0:95:ce:6a:62:32:
                    bb:63:63:9e:83:23:e8:f3:e2:9f:8b:60:d4:e9:76:
                    81:21:aa:7d:0f:3a:d0:64:75:18:8f:d0:b9:be:6f:
                    8c:85:e1:f8:9e:fa:e1:9d:7f:ce:bb:3a:98:5c:27:
                    79:62:13:3a:89:7f:c5:31:7a:9b:01:f6:e5:f3:9f:
                    e1:1f:fc:23:6a:2c:58:9d:36:e4:ba:14:a6:b9:bf:
                    72:6e:88:a2:a0:d0:18:7e:d8:c4:e5:4b:a6:76:40:
                    47:54:f2:cd:55:f7:fc:4a:c4:a8:58:fc:db:cc:50:
                    93:59:43:fe:2d:e6:14:53:e1:8e:d0:0b:0c:27:06:
                    18:07:4c:fb:1b:21:a0:80:88:bd:76:dc:dc:2c:60:
                    42:b8:4d:33:3c:5d:f1:73:ae:ed:99:22:a4:a8:a5:
                    f8:f7
                Exponent: 65537 (0x10001)
        X509v3 extensions:
            X509v3 Basic Constraints: 
                CA:FALSE
            X509v3 Subject Key Identifier: 
                A8:F1:1C:E8:21:84:42:91:5A:0B:76:FF:19:B4:F3:57:A6:29:2F:EF
            X509v3 Authority Key Identifier: 
                keyid:17:92:83:4A:34:55:C0:04:EA:16:9E:7E:CA:61:0F:A3:1A:4A:22:9C
                DirName:/CN=yxs
                serial:D3:A8:8A:C4:A1:1E:7F:3B

            X509v3 Extended Key Usage: 
                TLS Web Client Authentication
            X509v3 Key Usage: 
                Digital Signature
    Signature Algorithm: ecdsa-with-SHA512
         30:65:02:30:46:8d:89:a9:b1:25:24:73:bf:fa:f7:7f:1c:d5:
         b9:17:c5:05:80:3b:cd:ed:ed:a7:1b:a8:40:e4:19:c1:ac:75:
         ff:45:cc:30:c1:f4:b9:65:8d:75:e8:45:73:0d:d6:e6:02:31:
         00:f2:4f:cb:2b:76:57:2a:6c:0b:6b:c7:57:e1:d5:02:7c:a9:
         ef:6c:9e:92:1c:0a:e5:3b:9b:9f:29:c4:a7:4a:52:a7:a6:02:
         27:d9:91:57:52:ee:96:40:7a:bc:84:eb:6e
-----BEGIN CERTIFICATE-----
MIICyzCCAlGgAwIBAgIRAL/yev283X8gTUpIbSwBM/4wCgYIKoZIzj0EAwQwDjEM
MAoGA1UEAwwDeXhzMB4XDTIyMDYyMTIwNDEwM1oXDTI0MDkyMzIwNDEwM1owQzEL
MAkGA1UEBhMCQ04xCzAJBgNVBAgMAkdEMQswCQYDVQQHDAJTWjEMMAoGA1UECgwD
eXhzMQwwCgYDVQQDDANjb20wggEiMA0GCSqGSIb3DQEBAQUAA4IBDwAwggEKAoIB
AQDi4qCZTCLM/yFiTfmq1K4CiTc4uWm9D646IECgmFRLg0oEEHfdocUQ4oYiyRwv
hKx4P8lFjvse6tfB212jCYOkOP5/be4BgbOav8FWQ1gCYEUghto9mMnhxcvkuhpw
NhTCTMCVzmpiMrtjY56DI+jz4p+LYNTpdoEhqn0POtBkdRiP0Lm+b4yF4fie+uGd
f867OphcJ3liEzqJf8UxepsB9uXzn+Ef/CNqLFidNuS6FKa5v3JuiKKg0Bh+2MTl
S6Z2QEdU8s1V9/xKxKhY/NvMUJNZQ/4t5hRT4Y7QCwwnBhgHTPsbIaCAiL123Nws
YEK4TTM8XfFzru2ZIqSopfj3AgMBAAGjgY8wgYwwCQYDVR0TBAIwADAdBgNVHQ4E
FgQUqPEc6CGEQpFaC3b/GbTzV6YpL+8wPgYDVR0jBDcwNYAUF5KDSjRVwATqFp5+
ymEPoxpKIpyhEqQQMA4xDDAKBgNVBAMMA3l4c4IJANOoisShHn87MBMGA1UdJQQM
MAoGCCsGAQUFBwMCMAsGA1UdDwQEAwIHgDAKBggqhkjOPQQDBANoADBlAjBGjYmp
sSUkc7/6938c1bkXxQWAO83t7acbqEDkGcGsdf9FzDDB9LlljXXoRXMN1uYCMQDy
T8srdlcqbAtrx1fh1QJ8qe9snpIcCuU7m58pxKdKUqemAifZkVdS7pZAeryE624=
-----END CERTIFICATE-----
