Certificate:
    Data:
        Version: 3 (0x2)
        Serial Number:
            c0:c0:a9:5f:d0:de:3d:9a:19:92:86:bd:e4:f2:56:27
        Signature Algorithm: ecdsa-with-SHA512
        Issuer: CN=yxs
        Validity
            Not Before: Jun 21 19:54:39 2022 GMT
            Not After : Sep 23 19:54:39 2024 GMT
        Subject: C=cn, ST=hu, L=wh, O=pku, OU=sece, CN=client1/emailAddress=123@qq.com
        Subject Public Key Info:
            Public Key Algorithm: rsaEncryption
                RSA Public-Key: (2048 bit)
                Modulus:
                    00:a4:b0:dd:de:7e:32:9e:e4:05:9b:dd:1c:51:3a:
                    c9:4f:18:af:88:ae:bb:28:cc:39:cc:42:57:cd:6e:
                    4e:31:be:6f:87:bc:4c:8a:94:62:71:26:36:ae:1d:
                    b9:e8:9c:72:4e:66:88:27:29:5b:db:d5:3d:b2:c2:
                    93:40:dd:b6:fd:a5:84:24:b0:51:8f:28:4e:d0:5b:
                    19:81:2f:7c:3b:7e:4f:88:73:c9:ec:63:62:c8:57:
                    98:1e:05:4e:07:67:34:b1:4b:db:4b:63:8a:61:37:
                    ad:28:9d:bd:75:30:ad:71:c7:9f:50:49:29:54:8b:
                    7a:5d:73:ce:ff:a0:0c:30:4c:14:e1:a1:3e:da:bc:
                    00:a1:cd:5a:9c:71:f3:66:49:05:0d:23:ba:7b:54:
                    a2:13:a4:28:aa:59:80:ce:68:82:59:a1:56:a9:da:
                    46:a5:b2:c0:6a:17:47:fb:5a:c1:ff:b0:ae:ef:c7:
                    68:29:21:c3:ee:1a:2f:8a:25:46:50:4e:c2:2c:e6:
                    58:55:8c:80:d2:eb:4d:56:bf:49:9c:22:63:d4:52:
                    f9:e7:01:ed:36:6d:a4:83:93:2d:54:2f:7a:18:35:
                    d3:8a:51:52:0c:7a:a0:c3:66:67:58:a7:a6:14:fc:
                    a6:5e:d2:d5:5d:be:79:16:c3:a5:4c:13:01:14:9f:
                    6f:1f
                Exponent: 65537 (0x10001)
        X509v3 extensions:
            X509v3 Basic Constraints: 
                CA:FALSE
            X509v3 Subject Key Identifier: 
                50:0C:00:98:D9:07:B8:98:D4:C1:66:F4:F8:7A:C9:DB:FF:87:39:05
            X509v3 Authority Key Identifier: 
                keyid:17:92:83:4A:34:55:C0:04:EA:16:9E:7E:CA:61:0F:A3:1A:4A:22:9C
                DirName:/CN=yxs
                serial:D3:A8:8A:C4:A1:1E:7F:3B

            X509v3 Extended Key Usage: 
                TLS Web Client Authentication
            X509v3 Key Usage: 
                Digital Signature
    Signature Algorithm: ecdsa-with-SHA512
         30:65:02:31:00:da:d4:70:73:2f:3f:30:31:17:5e:b5:39:13:
         32:e9:1c:83:21:c2:f7:b4:85:08:24:db:e1:a3:26:6b:ff:0e:
         96:1a:34:66:c4:08:4b:8d:71:df:e4:0a:1e:eb:eb:0f:b9:02:
         30:07:a5:0c:e6:c0:4e:86:c3:41:34:4a:39:16:50:ae:f8:b2:
         8d:3c:23:e9:f9:81:cd:86:2f:67:c6:38:e0:8d:9a:82:e7:30:
         5a:e4:e8:40:c9:72:fc:4a:e5:38:fd:72:e3
-----BEGIN CERTIFICATE-----
MIIC+TCCAn+gAwIBAgIRAMDAqV/Q3j2aGZKGveTyVicwCgYIKoZIzj0EAwQwDjEM
MAoGA1UEAwwDeXhzMB4XDTIyMDYyMTE5NTQzOVoXDTI0MDkyMzE5NTQzOVowcTEL
MAkGA1UEBhMCY24xCzAJBgNVBAgMAmh1MQswCQYDVQQHDAJ3aDEMMAoGA1UECgwD
cGt1MQ0wCwYDVQQLDARzZWNlMRAwDgYDVQQDDAdjbGllbnQxMRkwFwYJKoZIhvcN
AQkBFgoxMjNAcXEuY29tMIIBIjANBgkqhkiG9w0BAQEFAAOCAQ8AMIIBCgKCAQEA
pLDd3n4ynuQFm90cUTrJTxiviK67KMw5zEJXzW5OMb5vh7xMipRicSY2rh256Jxy
TmaIJylb29U9ssKTQN22/aWEJLBRjyhO0FsZgS98O35PiHPJ7GNiyFeYHgVOB2c0
sUvbS2OKYTetKJ29dTCtccefUEkpVIt6XXPO/6AMMEwU4aE+2rwAoc1anHHzZkkF
DSO6e1SiE6QoqlmAzmiCWaFWqdpGpbLAahdH+1rB/7Cu78doKSHD7hoviiVGUE7C
LOZYVYyA0utNVr9JnCJj1FL55wHtNm2kg5MtVC96GDXTilFSDHqgw2ZnWKemFPym
XtLVXb55FsOlTBMBFJ9vHwIDAQABo4GPMIGMMAkGA1UdEwQCMAAwHQYDVR0OBBYE
FFAMAJjZB7iY1MFm9Ph6ydv/hzkFMD4GA1UdIwQ3MDWAFBeSg0o0VcAE6haefsph
D6MaSiKcoRKkEDAOMQwwCgYDVQQDDAN5eHOCCQDTqIrEoR5/OzATBgNVHSUEDDAK
BggrBgEFBQcDAjALBgNVHQ8EBAMCB4AwCgYIKoZIzj0EAwQDaAAwZQIxANrUcHMv
PzAxF161ORMy6RyDIcL3tIUIJNvhoyZr/w6WGjRmxAhLjXHf5Aoe6+sPuQIwB6UM
5sBOhsNBNEo5FlCu+LKNPCPp+YHNhi9nxjjgjZqC5zBa5OhAyXL8SuU4/XLj
-----END CERTIFICATE-----
