Certificate:
    Data:
        Version: 3 (0x2)
        Serial Number:
            c4:8a:14:b2:6c:3f:fd:3c:fc:94:1f:54:13:6b:19:ee
        Signature Algorithm: ecdsa-with-SHA512
        Issuer: CN=yxs
        Validity
            Not Before: Jun 22 02:22:44 2022 GMT
            Not After : Sep 24 02:22:44 2024 GMT
        Subject: C=CN, ST=GD, L=SZ, O=PKU, OU=SECE, CN=server/emailAddress=server@pku.edu.cn
        Subject Public Key Info:
            Public Key Algorithm: rsaEncryption
                RSA Public-Key: (2048 bit)
                Modulus:
                    00:b7:0f:f4:2d:4a:6d:73:e1:ea:58:08:fc:cb:b0:
                    a5:92:43:89:0c:bd:71:e3:24:7f:06:b7:fa:f2:d0:
                    b9:d9:5c:3d:c7:a9:e3:9e:ad:dc:3c:e0:53:f4:15:
                    1e:65:88:b6:71:d6:37:91:c3:3c:27:67:ae:93:e2:
                    b3:ca:19:e9:0d:22:19:38:9b:28:ca:af:60:7d:0c:
                    e2:89:17:f6:4f:bd:95:02:32:40:bb:42:68:0b:48:
                    f7:45:62:ea:d7:ae:ea:10:ae:84:d7:34:88:10:b5:
                    27:4d:e2:83:1b:c5:8e:9a:d2:ea:ee:35:63:87:f7:
                    3a:79:ac:f9:3f:4d:54:52:67:80:9f:43:9f:7e:7b:
                    d2:35:c9:2b:28:46:21:e9:f1:a3:84:3b:c3:ab:e2:
                    cd:af:45:4f:6d:9f:f3:e6:6b:73:fc:d3:75:b0:96:
                    32:b2:2e:ab:9b:03:c8:70:5b:d0:0a:38:54:e6:9b:
                    5c:7b:e3:b6:f9:10:83:90:ce:2c:ab:d6:1a:97:0e:
                    91:7e:ed:bd:ed:63:86:94:1f:4a:38:38:8a:81:5f:
                    08:a4:35:50:39:a4:68:74:ee:ff:70:66:95:c4:59:
                    10:33:98:51:34:e1:45:4a:cc:e2:a1:ce:4c:26:1f:
                    59:88:9d:27:fb:74:56:ea:dc:be:a9:a0:80:1c:d0:
                    80:43
                Exponent: 65537 (0x10001)
        X509v3 extensions:
            X509v3 Basic Constraints: 
                CA:FALSE
            X509v3 Subject Key Identifier: 
                C1:70:41:FA:B4:63:2A:4D:99:DF:00:44:8F:39:B9:D0:16:13:EC:E5
            X509v3 Authority Key Identifier: 
                keyid:17:92:83:4A:34:55:C0:04:EA:16:9E:7E:CA:61:0F:A3:1A:4A:22:9C
                DirName:/CN=yxs
                serial:D3:A8:8A:C4:A1:1E:7F:3B

            X509v3 Extended Key Usage: 
                TLS Web Client Authentication
            X509v3 Key Usage: 
                Digital Signature
    Signature Algorithm: ecdsa-with-SHA512
         30:66:02:31:00:88:03:23:ba:f2:c9:e4:74:88:cc:e4:80:ea:
         2c:57:80:1f:21:13:a0:1f:19:6c:0d:d2:08:c0:da:10:2f:18:
         63:a8:ea:13:c9:be:53:d6:30:a1:c9:4c:ba:92:5a:af:00:02:
         31:00:d4:e8:04:a5:16:7d:37:07:76:02:51:e8:69:9c:ea:d6:
         2b:3f:aa:40:e4:4b:73:90:54:50:35:9d:4e:cc:36:01:a0:17:
         52:45:86:be:b5:e9:2d:e8:1c:6c:c2:65:f6:f4
-----BEGIN CERTIFICATE-----
MIIDADCCAoWgAwIBAgIRAMSKFLJsP/08/JQfVBNrGe4wCgYIKoZIzj0EAwQwDjEM
MAoGA1UEAwwDeXhzMB4XDTIyMDYyMjAyMjI0NFoXDTI0MDkyNDAyMjI0NFowdzEL
MAkGA1UEBhMCQ04xCzAJBgNVBAgMAkdEMQswCQYDVQQHDAJTWjEMMAoGA1UECgwD
UEtVMQ0wCwYDVQQLDARTRUNFMQ8wDQYDVQQDDAZzZXJ2ZXIxIDAeBgkqhkiG9w0B
CQEWEXNlcnZlckBwa3UuZWR1LmNuMIIBIjANBgkqhkiG9w0BAQEFAAOCAQ8AMIIB
CgKCAQEAtw/0LUptc+HqWAj8y7ClkkOJDL1x4yR/Brf68tC52Vw9x6njnq3cPOBT
9BUeZYi2cdY3kcM8J2euk+KzyhnpDSIZOJsoyq9gfQziiRf2T72VAjJAu0JoC0j3
RWLq167qEK6E1zSIELUnTeKDG8WOmtLq7jVjh/c6eaz5P01UUmeAn0OffnvSNckr
KEYh6fGjhDvDq+LNr0VPbZ/z5mtz/NN1sJYysi6rmwPIcFvQCjhU5ptce+O2+RCD
kM4sq9Yalw6Rfu297WOGlB9KODiKgV8IpDVQOaRodO7/cGaVxFkQM5hRNOFFSszi
oc5MJh9ZiJ0n+3RW6ty+qaCAHNCAQwIDAQABo4GPMIGMMAkGA1UdEwQCMAAwHQYD
VR0OBBYEFMFwQfq0YypNmd8ARI85udAWE+zlMD4GA1UdIwQ3MDWAFBeSg0o0VcAE
6haefsphD6MaSiKcoRKkEDAOMQwwCgYDVQQDDAN5eHOCCQDTqIrEoR5/OzATBgNV
HSUEDDAKBggrBgEFBQcDAjALBgNVHQ8EBAMCB4AwCgYIKoZIzj0EAwQDaQAwZgIx
AIgDI7ryyeR0iMzkgOosV4AfIROgHxlsDdIIwNoQLxhjqOoTyb5T1jChyUy6klqv
AAIxANToBKUWfTcHdgJR6Gmc6tYrP6pA5EtzkFRQNZ1OzDYBoBdSRYa+tekt6Bxs
wmX29A==
-----END CERTIFICATE-----
