Certificate:
    Data:
        Version: 3 (0x2)
        Serial Number:
            d0:84:9c:b0:23:e4:7d:c1:e1:f6:e9:18:56:f2:ba:44
        Signature Algorithm: ecdsa-with-SHA512
        Issuer: CN=yxs
        Validity
            Not Before: Jun 21 20:29:09 2022 GMT
            Not After : Sep 23 20:29:09 2024 GMT
        Subject: C=CN, ST=GD, L=SZ, O=yxs, CN=com
        Subject Public Key Info:
            Public Key Algorithm: rsaEncryption
                RSA Public-Key: (2048 bit)
                Modulus:
                    00:e2:e2:a0:99:4c:22:cc:ff:21:62:4d:f9:aa:d4:
                    ae:02:89:37:38:b9:69:bd:0f:ae:3a:20:40:a0:98:
                    54:4b:83:4a:04:10:77:dd:a1:c5:10:e2:86:22:c9:
                    1c:2f:84:ac:78:3f:c9:45:8e:fb:1e:ea:d7:c1:db:
                    5d:a3:09:83:a4:38:fe:7f:6d:ee:01:81:b3:9a:bf:
                    c1:56:43:58:02:60:45:20:86:da:3d:98:c9:e1:c5:
                    cb:e4:ba:1a:70:36:14:c2:4c:c0:95:ce:6a:62:32:
                    bb:63:63:9e:83:23:e8:f3:e2:9f:8b:60:d4:e9:76:
                    81:21:aa:7d:0f:3a:d0:64:75:18:8f:d0:b9:be:6f:
                    8c:85:e1:f8:9e:fa:e1:9d:7f:ce:bb:3a:98:5c:27:
                    79:62:13:3a:89:7f:c5:31:7a:9b:01:f6:e5:f3:9f:
                    e1:1f:fc:23:6a:2c:58:9d:36:e4:ba:14:a6:b9:bf:
                    72:6e:88:a2:a0:d0:18:7e:d8:c4:e5:4b:a6:76:40:
                    47:54:f2:cd:55:f7:fc:4a:c4:a8:58:fc:db:cc:50:
                    93:59:43:fe:2d:e6:14:53:e1:8e:d0:0b:0c:27:06:
                    18:07:4c:fb:1b:21:a0:80:88:bd:76:dc:dc:2c:60:
                    42:b8:4d:33:3c:5d:f1:73:ae:ed:99:22:a4:a8:a5:
                    f8:f7
                Exponent: 65537 (0x10001)
        X509v3 extensions:
            X509v3 Basic Constraints: 
                CA:FALSE
            X509v3 Subject Key Identifier: 
                A8:F1:1C:E8:21:84:42:91:5A:0B:76:FF:19:B4:F3:57:A6:29:2F:EF
            X509v3 Authority Key Identifier: 
                keyid:17:92:83:4A:34:55:C0:04:EA:16:9E:7E:CA:61:0F:A3:1A:4A:22:9C
                DirName:/CN=yxs
                serial:D3:A8:8A:C4:A1:1E:7F:3B

            X509v3 Extended Key Usage: 
                TLS Web Client Authentication
            X509v3 Key Usage: 
                Digital Signature
    Signature Algorithm: ecdsa-with-SHA512
         30:66:02:31:00:db:7c:1d:63:32:c5:49:7b:2a:5f:c5:23:59:
         0d:40:4a:db:e4:e7:f2:79:59:5b:06:4d:90:be:f8:33:e8:ba:
         06:6e:54:d4:6a:46:a9:ab:e7:d5:ab:c1:f4:ca:93:39:2b:02:
         31:00:cb:37:34:87:11:ee:09:2d:3a:2c:d3:55:e3:17:99:fd:
         5b:44:d3:f3:97:74:e6:8c:2b:06:94:cf:d2:6a:3e:35:bc:dc:
         4d:8d:bc:a3:ca:8f:be:4d:c3:09:03:a3:6c:82
-----BEGIN CERTIFICATE-----
MIICzDCCAlGgAwIBAgIRANCEnLAj5H3B4fbpGFbyukQwCgYIKoZIzj0EAwQwDjEM
MAoGA1UEAwwDeXhzMB4XDTIyMDYyMTIwMjkwOVoXDTI0MDkyMzIwMjkwOVowQzEL
MAkGA1UEBhMCQ04xCzAJBgNVBAgMAkdEMQswCQYDVQQHDAJTWjEMMAoGA1UECgwD
eXhzMQwwCgYDVQQDDANjb20wggEiMA0GCSqGSIb3DQEBAQUAA4IBDwAwggEKAoIB
AQDi4qCZTCLM/yFiTfmq1K4CiTc4uWm9D646IECgmFRLg0oEEHfdocUQ4oYiyRwv
hKx4P8lFjvse6tfB212jCYOkOP5/be4BgbOav8FWQ1gCYEUghto9mMnhxcvkuhpw
NhTCTMCVzmpiMrtjY56DI+jz4p+LYNTpdoEhqn0POtBkdRiP0Lm+b4yF4fie+uGd
f867OphcJ3liEzqJf8UxepsB9uXzn+Ef/CNqLFidNuS6FKa5v3JuiKKg0Bh+2MTl
S6Z2QEdU8s1V9/xKxKhY/NvMUJNZQ/4t5hRT4Y7QCwwnBhgHTPsbIaCAiL123Nws
YEK4TTM8XfFzru2ZIqSopfj3AgMBAAGjgY8wgYwwCQYDVR0TBAIwADAdBgNVHQ4E
FgQUqPEc6CGEQpFaC3b/GbTzV6YpL+8wPgYDVR0jBDcwNYAUF5KDSjRVwATqFp5+
ymEPoxpKIpyhEqQQMA4xDDAKBgNVBAMMA3l4c4IJANOoisShHn87MBMGA1UdJQQM
MAoGCCsGAQUFBwMCMAsGA1UdDwQEAwIHgDAKBggqhkjOPQQDBANpADBmAjEA23wd
YzLFSXsqX8UjWQ1AStvk5/J5WVsGTZC++DPougZuVNRqRqmr59WrwfTKkzkrAjEA
yzc0hxHuCS06LNNV4xeZ/VtE0/OXdOaMKwaUz9JqPjW83E2NvKPKj75NwwkDo2yC
-----END CERTIFICATE-----
