Certificate:
    Data:
        Version: 3 (0x2)
        Serial Number:
            d1:61:12:d6:d9:77:6b:16:8b:7d:cd:47:c1:85:ca:72
    Signature Algorithm: ecdsa-with-SHA512
        Issuer: CN=yxs
        Validity
            Not Before: Jun 21 04:49:02 2022 GMT
            Not After : Sep 23 04:49:02 2024 GMT
        Subject: C=CN, ST=GD, L=SZ, O=PKUSZ, CN=client
        Subject Public Key Info:
            Public Key Algorithm: rsaEncryption
                Public-Key: (1024 bit)
                Modulus:
                    00:bf:5d:ac:73:c5:7f:20:c3:0f:9e:02:e5:14:7a:
                    ee:38:66:7f:30:ac:08:b0:40:b3:dc:e1:ba:36:9c:
                    70:7a:94:68:3b:17:89:e8:4f:ad:43:21:9c:4a:20:
                    29:16:18:63:d2:30:2a:cb:f7:a3:2b:c6:e6:89:bf:
                    d7:16:6a:68:91:0f:d1:61:e2:aa:2a:cd:99:89:92:
                    44:d9:65:48:f5:d5:c7:0b:f7:97:b7:4d:00:18:15:
                    6d:ca:5a:9a:15:45:18:64:61:9b:1a:a4:29:d3:5f:
                    79:2f:ca:05:b5:c4:6a:b7:58:3c:40:95:c3:02:6f:
                    7d:48:20:0c:b4:f4:a5:55:8b
                Exponent: 65537 (0x10001)
        X509v3 extensions:
            X509v3 Basic Constraints: 
                CA:FALSE
            X509v3 Subject Key Identifier: 
                97:D0:3A:13:EB:3F:20:4E:4F:32:30:EC:F0:A6:1C:4F:E6:7D:C1:E7
            X509v3 Authority Key Identifier: 
                keyid:17:92:83:4A:34:55:C0:04:EA:16:9E:7E:CA:61:0F:A3:1A:4A:22:9C
                DirName:/CN=yxs
                serial:D3:A8:8A:C4:A1:1E:7F:3B

            X509v3 Extended Key Usage: 
                TLS Web Client Authentication
            X509v3 Key Usage: 
                Digital Signature
    Signature Algorithm: ecdsa-with-SHA512
         30:65:02:31:00:a8:59:a8:18:ce:0b:c9:79:a1:df:08:1d:5e:
         53:d3:11:b1:8e:e6:cc:9a:32:9e:14:21:ef:7d:5e:2c:8d:fd:
         da:25:37:9b:75:b0:f1:52:9b:4e:e7:9f:90:da:5e:cc:ce:02:
         30:4c:70:ef:9b:be:69:dd:44:d5:89:8c:2a:6b:5c:fb:97:e5:
         73:90:4e:6d:0b:fe:f0:4b:b1:39:01:36:64:93:cf:2b:92:53:
         16:27:39:5d:cc:29:38:9a:8b:0e:8c:8d:e4
-----BEGIN CERTIFICATE-----
MIICTDCCAdKgAwIBAgIRANFhEtbZd2sWi33NR8GFynIwCgYIKoZIzj0EAwQwDjEM
MAoGA1UEAwwDeXhzMB4XDTIyMDYyMTA0NDkwMloXDTI0MDkyMzA0NDkwMlowSDEL
MAkGA1UEBhMCQ04xCzAJBgNVBAgMAkdEMQswCQYDVQQHDAJTWjEOMAwGA1UECgwF
UEtVU1oxDzANBgNVBAMMBmNsaWVudDCBnzANBgkqhkiG9w0BAQEFAAOBjQAwgYkC
gYEAv12sc8V/IMMPngLlFHruOGZ/MKwIsECz3OG6NpxwepRoOxeJ6E+tQyGcSiAp
Fhhj0jAqy/ejK8bmib/XFmpokQ/RYeKqKs2ZiZJE2WVI9dXHC/eXt00AGBVtylqa
FUUYZGGbGqQp0195L8oFtcRqt1g8QJXDAm99SCAMtPSlVYsCAwEAAaOBjzCBjDAJ
BgNVHRMEAjAAMB0GA1UdDgQWBBSX0DoT6z8gTk8yMOzwphxP5n3B5zA+BgNVHSME
NzA1gBQXkoNKNFXABOoWnn7KYQ+jGkoinKESpBAwDjEMMAoGA1UEAwwDeXhzggkA
06iKxKEefzswEwYDVR0lBAwwCgYIKwYBBQUHAwIwCwYDVR0PBAQDAgeAMAoGCCqG
SM49BAMEA2gAMGUCMQCoWagYzgvJeaHfCB1eU9MRsY7mzJoynhQh731eLI392iU3
m3Ww8VKbTuefkNpezM4CMExw75u+ad1E1YmMKmtc+5flc5BObQv+8EuxOQE2ZJPP
K5JTFic5XcwpOJqLDoyN5A==
-----END CERTIFICATE-----
