Certificate:
    Data:
        Version: 3 (0x2)
        Serial Number:
            d8:3b:f3:b9:1f:a6:44:6b:f4:63:6a:6d:f1:29:60:d4
        Signature Algorithm: ecdsa-with-SHA512
        Issuer: CN=yxs
        Validity
            Not Before: Jun 22 03:24:10 2022 GMT
            Not After : Sep 24 03:24:10 2024 GMT
        Subject: C=CN, ST=GD, L=SZ, O=PKU, OU=SECE, CN=client1/emailAddress=client1@pku.edu.cn
        Subject Public Key Info:
            Public Key Algorithm: rsaEncryption
                RSA Public-Key: (2048 bit)
                Modulus:
                    00:97:7f:7a:55:84:aa:3a:ae:e4:e1:a5:55:f5:8b:
                    a7:92:37:af:8b:9f:1a:5d:b9:83:3b:b2:a5:5f:53:
                    98:31:eb:71:b3:27:bc:3f:7a:9d:12:c6:91:4e:99:
                    33:c1:2c:b5:0c:e4:d0:af:56:e1:59:50:af:a5:2a:
                    96:76:97:2e:dd:ac:e1:da:d6:17:f5:10:d0:69:9c:
                    29:12:d3:01:24:fa:4e:0b:f5:41:70:b2:2b:75:ec:
                    e8:f9:c9:96:0e:d9:b2:05:cd:1b:81:dc:25:0e:e3:
                    80:ea:69:a2:83:68:d5:1f:64:48:05:f4:51:06:0a:
                    e5:b4:9a:90:47:24:91:66:d6:29:e8:3d:95:3e:ab:
                    ab:e5:b6:43:37:e8:b4:88:11:4f:6a:c0:70:a3:73:
                    8a:51:25:f5:b7:c2:6f:a9:20:27:18:87:e5:54:84:
                    1e:83:2a:de:bb:06:f7:3b:03:8b:4a:73:a3:88:d8:
                    8b:6d:b3:6f:f9:06:8a:db:96:2d:94:fd:a3:32:13:
                    e3:09:e8:ba:ea:fa:c4:ef:1b:96:6d:5e:bb:62:bc:
                    e3:0a:e3:38:08:a9:9a:b7:fd:ae:d1:82:5d:cd:5a:
                    1b:ff:68:88:90:dd:72:ab:30:aa:53:29:c1:17:b8:
                    eb:b9:8f:96:a8:db:7a:28:1c:6a:71:4f:96:5c:46:
                    f0:4b
                Exponent: 65537 (0x10001)
        X509v3 extensions:
            X509v3 Basic Constraints: 
                CA:FALSE
            X509v3 Subject Key Identifier: 
                2C:90:37:76:45:84:95:9E:5A:4E:86:C9:81:E3:4E:5F:C9:60:90:58
            X509v3 Authority Key Identifier: 
                keyid:17:92:83:4A:34:55:C0:04:EA:16:9E:7E:CA:61:0F:A3:1A:4A:22:9C
                DirName:/CN=yxs
                serial:D3:A8:8A:C4:A1:1E:7F:3B

            X509v3 Extended Key Usage: 
                TLS Web Client Authentication
            X509v3 Key Usage: 
                Digital Signature
    Signature Algorithm: ecdsa-with-SHA512
         30:64:02:30:46:00:7a:ab:e6:a6:09:8e:f7:1a:9c:b3:02:f8:
         22:91:fd:54:a6:bb:c1:05:56:05:81:7e:53:fb:1e:05:3f:c2:
         5d:a0:de:a8:55:27:f8:c9:c6:72:52:43:56:bc:07:42:02:30:
         1c:96:e0:ff:c0:2c:ab:e9:22:96:e8:e4:fd:c1:49:31:68:16:
         32:18:9a:a8:96:25:e6:09:95:e2:26:52:36:04:b0:cc:70:41:
         5a:30:01:b8:6c:5a:b2:ca:29:7d:ee:75
-----BEGIN CERTIFICATE-----
MIIDADCCAoegAwIBAgIRANg787kfpkRr9GNqbfEpYNQwCgYIKoZIzj0EAwQwDjEM
MAoGA1UEAwwDeXhzMB4XDTIyMDYyMjAzMjQxMFoXDTI0MDkyNDAzMjQxMFoweTEL
MAkGA1UEBhMCQ04xCzAJBgNVBAgMAkdEMQswCQYDVQQHDAJTWjEMMAoGA1UECgwD
UEtVMQ0wCwYDVQQLDARTRUNFMRAwDgYDVQQDDAdjbGllbnQxMSEwHwYJKoZIhvcN
AQkBFhJjbGllbnQxQHBrdS5lZHUuY24wggEiMA0GCSqGSIb3DQEBAQUAA4IBDwAw
ggEKAoIBAQCXf3pVhKo6ruThpVX1i6eSN6+LnxpduYM7sqVfU5gx63GzJ7w/ep0S
xpFOmTPBLLUM5NCvVuFZUK+lKpZ2ly7drOHa1hf1ENBpnCkS0wEk+k4L9UFwsit1
7Oj5yZYO2bIFzRuB3CUO44DqaaKDaNUfZEgF9FEGCuW0mpBHJJFm1inoPZU+q6vl
tkM36LSIEU9qwHCjc4pRJfW3wm+pICcYh+VUhB6DKt67Bvc7A4tKc6OI2Itts2/5
Borbli2U/aMyE+MJ6Lrq+sTvG5ZtXrtivOMK4zgIqZq3/a7Rgl3NWhv/aIiQ3XKr
MKpTKcEXuOu5j5ao23ooHGpxT5ZcRvBLAgMBAAGjgY8wgYwwCQYDVR0TBAIwADAd
BgNVHQ4EFgQULJA3dkWElZ5aTobJgeNOX8lgkFgwPgYDVR0jBDcwNYAUF5KDSjRV
wATqFp5+ymEPoxpKIpyhEqQQMA4xDDAKBgNVBAMMA3l4c4IJANOoisShHn87MBMG
A1UdJQQMMAoGCCsGAQUFBwMCMAsGA1UdDwQEAwIHgDAKBggqhkjOPQQDBANnADBk
AjBGAHqr5qYJjvcanLMC+CKR/VSmu8EFVgWBflP7HgU/wl2g3qhVJ/jJxnJSQ1a8
B0ICMByW4P/ALKvpIpbo5P3BSTFoFjIYmqiWJeYJleImUjYEsMxwQVowAbhsWrLK
KX3udQ==
-----END CERTIFICATE-----
