Certificate:
    Data:
        Version: 3 (0x2)
        Serial Number:
            db:87:9e:2f:6a:1d:05:b6:f9:a7:73:1a:66:8e:06:78
        Signature Algorithm: ecdsa-with-SHA512
        Issuer: CN=yxs
        Validity
            Not Before: Jun 22 03:40:18 2022 GMT
            Not After : Sep 24 03:40:18 2024 GMT
        Subject: C=CN, ST=CN, L=CN, O=CN, OU=CN, CN=CN/emailAddress=CN
        Subject Public Key Info:
            Public Key Algorithm: rsaEncryption
                RSA Public-Key: (2048 bit)
                Modulus:
                    00:c2:d8:08:80:43:44:9a:d2:36:6e:98:b5:61:b0:
                    83:9e:6d:a9:05:9e:63:a8:27:14:f9:f9:f0:17:44:
                    0c:26:0e:1f:8a:12:52:7d:d1:a1:e8:39:34:06:ab:
                    33:a9:94:b0:76:6a:2a:2f:14:de:3c:ae:a7:3e:84:
                    8b:c1:ac:b6:46:b3:8c:4d:69:d6:3a:16:22:1f:28:
                    81:b4:f4:e1:92:30:0c:af:b4:c5:dd:af:9b:29:c0:
                    6a:07:91:05:29:3c:54:49:5a:7d:8d:9d:f8:d5:36:
                    95:4a:c1:a2:94:f7:e1:9b:5a:10:57:34:fb:12:de:
                    68:c5:4a:75:e6:c1:03:82:da:f1:56:f1:19:50:3f:
                    ff:e6:1e:8d:a8:c4:aa:56:95:ba:65:e0:11:68:49:
                    e6:fe:ef:a5:30:b4:15:43:d1:24:3e:c1:7f:0b:e2:
                    c4:4c:b1:07:07:89:63:5d:1e:0a:1b:98:82:70:19:
                    e5:08:3c:d1:cb:62:63:55:e8:ca:a4:8f:87:0f:a0:
                    4d:7c:89:55:fb:b8:83:1e:4e:59:9a:6a:c7:16:0f:
                    34:b9:b5:2b:f4:bf:7b:d0:c2:74:76:55:53:be:83:
                    00:52:d4:5c:72:59:ec:49:76:92:3d:c8:ca:f5:90:
                    94:17:8a:31:09:a0:1d:88:7a:42:7f:02:d7:91:26:
                    87:65
                Exponent: 65537 (0x10001)
        X509v3 extensions:
            X509v3 Basic Constraints: 
                CA:FALSE
            X509v3 Subject Key Identifier: 
                D4:A1:9E:6D:5C:16:6C:F6:7D:80:CF:F7:B2:A9:18:52:A6:4F:9D:C3
            X509v3 Authority Key Identifier: 
                keyid:17:92:83:4A:34:55:C0:04:EA:16:9E:7E:CA:61:0F:A3:1A:4A:22:9C
                DirName:/CN=yxs
                serial:D3:A8:8A:C4:A1:1E:7F:3B

            X509v3 Extended Key Usage: 
                TLS Web Client Authentication
            X509v3 Key Usage: 
                Digital Signature
    Signature Algorithm: ecdsa-with-SHA512
         30:65:02:30:55:21:b1:30:67:6b:72:c7:49:38:54:84:45:6f:
         cb:47:45:27:8e:44:01:15:95:0b:f6:e9:dd:1e:8c:88:b5:97:
         63:51:0d:35:45:43:f0:68:a4:16:35:8e:fa:90:49:3a:02:31:
         00:c7:ae:39:38:f7:b8:ba:da:a9:31:4d:8e:4c:61:30:20:6e:
         07:50:42:ad:9e:43:7e:cc:2a:53:7f:3c:4a:b6:ca:3d:50:38:
         86:91:1b:bd:c4:21:4f:33:6f:19:68:5f:bd
-----BEGIN CERTIFICATE-----
MIIC6TCCAm+gAwIBAgIRANuHni9qHQW2+adzGmaOBngwCgYIKoZIzj0EAwQwDjEM
MAoGA1UEAwwDeXhzMB4XDTIyMDYyMjAzNDAxOFoXDTI0MDkyNDAzNDAxOFowYTEL
MAkGA1UEBhMCQ04xCzAJBgNVBAgMAkNOMQswCQYDVQQHDAJDTjELMAkGA1UECgwC
Q04xCzAJBgNVBAsMAkNOMQswCQYDVQQDDAJDTjERMA8GCSqGSIb3DQEJARYCQ04w
ggEiMA0GCSqGSIb3DQEBAQUAA4IBDwAwggEKAoIBAQDC2AiAQ0Sa0jZumLVhsIOe
bakFnmOoJxT5+fAXRAwmDh+KElJ90aHoOTQGqzOplLB2aiovFN48rqc+hIvBrLZG
s4xNadY6FiIfKIG09OGSMAyvtMXdr5spwGoHkQUpPFRJWn2NnfjVNpVKwaKU9+Gb
WhBXNPsS3mjFSnXmwQOC2vFW8RlQP//mHo2oxKpWlbpl4BFoSeb+76UwtBVD0SQ+
wX8L4sRMsQcHiWNdHgobmIJwGeUIPNHLYmNV6Mqkj4cPoE18iVX7uIMeTlmaascW
DzS5tSv0v3vQwnR2VVO+gwBS1FxyWexJdpI9yMr1kJQXijEJoB2IekJ/AteRJodl
AgMBAAGjgY8wgYwwCQYDVR0TBAIwADAdBgNVHQ4EFgQU1KGebVwWbPZ9gM/3sqkY
UqZPncMwPgYDVR0jBDcwNYAUF5KDSjRVwATqFp5+ymEPoxpKIpyhEqQQMA4xDDAK
BgNVBAMMA3l4c4IJANOoisShHn87MBMGA1UdJQQMMAoGCCsGAQUFBwMCMAsGA1Ud
DwQEAwIHgDAKBggqhkjOPQQDBANoADBlAjBVIbEwZ2tyx0k4VIRFb8tHRSeORAEV
lQv26d0ejIi1l2NRDTVFQ/BopBY1jvqQSToCMQDHrjk497i62qkxTY5MYTAgbgdQ
Qq2eQ37MKlN/PEq2yj1QOIaRG73EIU8zbxloX70=
-----END CERTIFICATE-----
