Certificate:
    Data:
        Version: 3 (0x2)
        Serial Number:
            dc:74:ee:94:cc:33:8d:83:53:ee:6c:8c:b9:82:a9:73
        Signature Algorithm: ecdsa-with-SHA512
        Issuer: CN=yxs
        Validity
            Not Before: Jun 22 03:51:52 2022 GMT
            Not After : Sep 24 03:51:52 2024 GMT
        Subject: C=CN, ST=CN, L=CN, O=CN, OU=CN, CN=Cn/emailAddress=CN
        Subject Public Key Info:
            Public Key Algorithm: rsaEncryption
                RSA Public-Key: (2048 bit)
                Modulus:
                    00:c0:8f:27:89:a8:59:e7:e7:19:cc:f1:a4:87:19:
                    32:10:f0:5f:af:39:bb:e3:99:a1:ec:3b:bf:e7:96:
                    a3:0b:5d:96:31:ef:6c:55:da:3e:2d:59:11:44:2f:
                    07:4c:a7:69:77:e8:bf:f4:0d:09:49:4a:16:1a:ff:
                    b9:70:c4:5d:b9:b1:2f:45:69:89:27:69:6c:0e:ec:
                    46:4e:df:42:bb:75:7b:99:55:ec:72:e2:d6:1d:84:
                    22:4a:67:cd:a6:49:f0:dc:3d:96:1c:c6:3b:1e:03:
                    61:7f:c7:fc:9b:6c:05:bf:c7:3f:01:fd:ce:bf:7e:
                    b5:fd:22:f1:53:df:5e:98:e4:4f:78:b2:35:8f:57:
                    5d:5d:20:83:91:69:3f:84:11:a2:3f:7b:cb:d6:c7:
                    26:0c:fb:99:5e:8d:43:1e:7b:bc:ab:68:05:2d:87:
                    c1:7b:e8:80:3c:ae:e2:d1:21:b0:ef:19:0d:69:9e:
                    5d:ae:9b:c2:bd:85:5a:43:a7:75:9e:5c:d7:82:b0:
                    0f:81:bc:37:fb:fb:9d:7b:34:72:44:54:e0:d7:20:
                    04:50:1a:21:ac:ec:5d:2b:ff:e3:5a:d8:c4:80:64:
                    c0:76:da:9c:70:f3:0a:ec:d8:b1:7f:96:99:1f:fb:
                    73:2c:f0:8b:56:f2:53:1d:04:c0:87:90:70:d5:59:
                    bc:0f
                Exponent: 65537 (0x10001)
        X509v3 extensions:
            X509v3 Basic Constraints: 
                CA:FALSE
            X509v3 Subject Key Identifier: 
                64:EE:A9:CF:DA:82:EF:E8:C1:11:50:E7:3C:A8:A0:03:71:1F:6E:FA
            X509v3 Authority Key Identifier: 
                keyid:17:92:83:4A:34:55:C0:04:EA:16:9E:7E:CA:61:0F:A3:1A:4A:22:9C
                DirName:/CN=yxs
                serial:D3:A8:8A:C4:A1:1E:7F:3B

            X509v3 Extended Key Usage: 
                TLS Web Client Authentication
            X509v3 Key Usage: 
                Digital Signature
    Signature Algorithm: ecdsa-with-SHA512
         30:65:02:30:64:8a:6f:8c:c2:c5:27:4b:4f:89:be:1f:c5:6a:
         87:8e:1d:18:69:3a:da:dd:be:0e:bd:90:d4:ec:e7:3b:5a:48:
         03:48:58:3c:74:29:85:7e:37:a6:46:67:ca:f3:ec:fb:02:31:
         00:fe:70:74:26:e3:fd:c4:f5:2f:1d:85:66:47:1f:d2:0b:6e:
         1a:72:53:f1:e0:c9:7d:bf:93:59:0d:c7:0a:b0:58:76:94:af:
         2e:d9:ef:35:c3:2f:eb:23:c1:8b:b9:df:d9
-----BEGIN CERTIFICATE-----
MIIC6TCCAm+gAwIBAgIRANx07pTMM42DU+5sjLmCqXMwCgYIKoZIzj0EAwQwDjEM
MAoGA1UEAwwDeXhzMB4XDTIyMDYyMjAzNTE1MloXDTI0MDkyNDAzNTE1MlowYTEL
MAkGA1UEBhMCQ04xCzAJBgNVBAgMAkNOMQswCQYDVQQHDAJDTjELMAkGA1UECgwC
Q04xCzAJBgNVBAsMAkNOMQswCQYDVQQDDAJDbjERMA8GCSqGSIb3DQEJARYCQ04w
ggEiMA0GCSqGSIb3DQEBAQUAA4IBDwAwggEKAoIBAQDAjyeJqFnn5xnM8aSHGTIQ
8F+vObvjmaHsO7/nlqMLXZYx72xV2j4tWRFELwdMp2l36L/0DQlJShYa/7lwxF25
sS9FaYknaWwO7EZO30K7dXuZVexy4tYdhCJKZ82mSfDcPZYcxjseA2F/x/ybbAW/
xz8B/c6/frX9IvFT316Y5E94sjWPV11dIIORaT+EEaI/e8vWxyYM+5lejUMee7yr
aAUth8F76IA8ruLRIbDvGQ1pnl2um8K9hVpDp3WeXNeCsA+BvDf7+517NHJEVODX
IARQGiGs7F0r/+Na2MSAZMB22pxw8wrs2LF/lpkf+3Ms8ItW8lMdBMCHkHDVWbwP
AgMBAAGjgY8wgYwwCQYDVR0TBAIwADAdBgNVHQ4EFgQUZO6pz9qC7+jBEVDnPKig
A3EfbvowPgYDVR0jBDcwNYAUF5KDSjRVwATqFp5+ymEPoxpKIpyhEqQQMA4xDDAK
BgNVBAMMA3l4c4IJANOoisShHn87MBMGA1UdJQQMMAoGCCsGAQUFBwMCMAsGA1Ud
DwQEAwIHgDAKBggqhkjOPQQDBANoADBlAjBkim+MwsUnS0+Jvh/FaoeOHRhpOtrd
vg69kNTs5ztaSANIWDx0KYV+N6ZGZ8rz7PsCMQD+cHQm4/3E9S8dhWZHH9ILbhpy
U/HgyX2/k1kNxwqwWHaUry7Z7zXDL+sjwYu539k=
-----END CERTIFICATE-----
