Certificate:
    Data:
        Version: 3 (0x2)
        Serial Number:
            ec:78:ce:9e:88:7e:c0:13:dc:db:96:ae:8a:b8:a6:38
        Signature Algorithm: ecdsa-with-SHA512
        Issuer: CN=yxs
        Validity
            Not Before: Jun 22 03:23:07 2022 GMT
            Not After : Sep 24 03:23:07 2024 GMT
        Subject: C=CN, ST=PKU, L=SZ, O=PKU, OU=SECE, CN=server/emailAddress=server@pku.edu.cn
        Subject Public Key Info:
            Public Key Algorithm: rsaEncryption
                RSA Public-Key: (2048 bit)
                Modulus:
                    00:9d:41:9a:be:ac:3d:46:00:dd:2e:e6:f4:d9:7d:
                    24:57:68:4f:4e:ff:56:dd:3e:f2:42:fc:8c:e6:79:
                    1d:b4:19:d6:8b:85:5e:60:97:60:fc:a0:e1:36:ee:
                    5f:85:f8:be:b6:fb:d0:d6:d5:ed:1a:3d:da:c3:dc:
                    a4:08:47:67:78:a8:cb:1d:06:30:3f:d5:73:de:bf:
                    b0:1d:ef:56:fa:10:fd:58:b6:c1:d6:da:09:b2:d5:
                    25:fd:80:19:05:a7:7f:e5:0e:35:e6:24:d5:b3:fa:
                    23:fe:f7:9e:b3:82:a4:56:4c:7b:42:1c:76:84:9b:
                    35:f1:26:3c:e5:b7:f5:0d:be:52:15:0d:c4:95:3a:
                    bb:b3:25:f4:18:5e:b3:bd:01:cc:5b:f5:fd:20:84:
                    e5:c1:0e:d0:aa:80:c2:7e:d4:16:e9:54:7a:13:cc:
                    4d:ae:80:3f:99:20:05:e4:35:c2:29:49:5c:9f:41:
                    94:66:df:f0:dc:8b:bf:49:bc:bd:91:19:02:b4:29:
                    56:df:7b:f2:21:54:8c:46:b5:20:b3:09:07:a6:f2:
                    b6:be:8d:ef:bd:a8:d2:bc:db:57:f3:af:b1:2f:3a:
                    b0:3b:5f:69:85:6d:a9:ba:8d:1d:60:9e:25:d4:40:
                    32:e2:06:ab:37:43:ad:b1:a5:3e:60:11:23:18:6f:
                    74:b7
                Exponent: 65537 (0x10001)
        X509v3 extensions:
            X509v3 Basic Constraints: 
                CA:FALSE
            X509v3 Subject Key Identifier: 
                E2:E1:A1:A1:2A:3E:C1:C2:E1:B6:3E:30:19:07:6A:98:C6:7A:2D:76
            X509v3 Authority Key Identifier: 
                keyid:17:92:83:4A:34:55:C0:04:EA:16:9E:7E:CA:61:0F:A3:1A:4A:22:9C
                DirName:/CN=yxs
                serial:D3:A8:8A:C4:A1:1E:7F:3B

            X509v3 Extended Key Usage: 
                TLS Web Client Authentication
            X509v3 Key Usage: 
                Digital Signature
    Signature Algorithm: ecdsa-with-SHA512
         30:65:02:31:00:ed:65:a8:33:73:49:92:90:7e:b3:6e:64:66:
         62:d0:d1:2e:8f:09:9f:8a:44:68:2f:e1:39:80:a9:0b:4e:fa:
         5c:55:69:f7:9f:ea:54:7d:69:0d:d0:b8:ab:e0:d3:a8:54:02:
         30:60:b8:78:ca:f9:15:95:d1:18:74:2e:e7:73:b3:09:fe:dd:
         ed:60:c4:2e:56:b8:f4:d2:fa:4d:af:22:87:21:18:45:b3:96:
         5c:40:04:9c:e4:e4:ea:2b:e6:b3:6e:ba:21
-----BEGIN CERTIFICATE-----
MIIDADCCAoagAwIBAgIRAOx4zp6IfsAT3NuWroq4pjgwCgYIKoZIzj0EAwQwDjEM
MAoGA1UEAwwDeXhzMB4XDTIyMDYyMjAzMjMwN1oXDTI0MDkyNDAzMjMwN1oweDEL
MAkGA1UEBhMCQ04xDDAKBgNVBAgMA1BLVTELMAkGA1UEBwwCU1oxDDAKBgNVBAoM
A1BLVTENMAsGA1UECwwEU0VDRTEPMA0GA1UEAwwGc2VydmVyMSAwHgYJKoZIhvcN
AQkBFhFzZXJ2ZXJAcGt1LmVkdS5jbjCCASIwDQYJKoZIhvcNAQEBBQADggEPADCC
AQoCggEBAJ1Bmr6sPUYA3S7m9Nl9JFdoT07/Vt0+8kL8jOZ5HbQZ1ouFXmCXYPyg
4TbuX4X4vrb70NbV7Ro92sPcpAhHZ3ioyx0GMD/Vc96/sB3vVvoQ/Vi2wdbaCbLV
Jf2AGQWnf+UONeYk1bP6I/73nrOCpFZMe0IcdoSbNfEmPOW39Q2+UhUNxJU6u7Ml
9Bhes70BzFv1/SCE5cEO0KqAwn7UFulUehPMTa6AP5kgBeQ1wilJXJ9BlGbf8NyL
v0m8vZEZArQpVt978iFUjEa1ILMJB6bytr6N772o0rzbV/OvsS86sDtfaYVtqbqN
HWCeJdRAMuIGqzdDrbGlPmARIxhvdLcCAwEAAaOBjzCBjDAJBgNVHRMEAjAAMB0G
A1UdDgQWBBTi4aGhKj7BwuG2PjAZB2qYxnotdjA+BgNVHSMENzA1gBQXkoNKNFXA
BOoWnn7KYQ+jGkoinKESpBAwDjEMMAoGA1UEAwwDeXhzggkA06iKxKEefzswEwYD
VR0lBAwwCgYIKwYBBQUHAwIwCwYDVR0PBAQDAgeAMAoGCCqGSM49BAMEA2gAMGUC
MQDtZagzc0mSkH6zbmRmYtDRLo8Jn4pEaC/hOYCpC076XFVp95/qVH1pDdC4q+DT
qFQCMGC4eMr5FZXRGHQu53OzCf7d7WDELla49NL6Ta8ihyEYRbOWXEAEnOTk6ivm
s266IQ==
-----END CERTIFICATE-----
