Certificate:
    Data:
        Version: 3 (0x2)
        Serial Number:
            ed:fc:ad:e6:db:52:f5:7c:fc:43:23:80:86:e1:08:d6
        Signature Algorithm: ecdsa-with-SHA512
        Issuer: CN=yxs
        Validity
            Not Before: Jun 22 04:04:56 2022 GMT
            Not After : Sep 24 04:04:56 2024 GMT
        Subject: C=CN, ST=GD, L=SZ, O=PKU, OU=SECE, CN=client2/emailAddress=client2@pku.edu.cn
        Subject Public Key Info:
            Public Key Algorithm: rsaEncryption
                RSA Public-Key: (2048 bit)
                Modulus:
                    00:d6:0e:32:40:bb:cb:ab:63:bf:10:85:c7:7d:cf:
                    3a:5d:97:b8:03:de:b1:aa:0e:55:14:b5:ea:35:1d:
                    c1:d5:a5:2a:d8:0b:23:3b:f6:27:67:73:79:6c:cd:
                    40:5a:6b:1f:d0:34:d1:c6:f0:d1:82:45:30:5a:3a:
                    34:0a:e6:21:31:30:a0:20:45:02:f5:bb:67:cd:30:
                    2e:fa:ba:3b:9d:9c:5e:d9:f1:40:f2:b0:f3:44:fa:
                    43:fb:cb:da:82:39:82:01:cd:14:dd:46:e2:f1:90:
                    82:bd:0d:3e:3b:bb:d2:64:08:6a:9c:7e:ee:75:a0:
                    90:f7:ce:0a:76:cd:9c:e8:29:91:9b:b2:38:78:5f:
                    31:79:03:ab:fd:25:e4:81:9a:13:ee:df:c2:4c:aa:
                    c1:5e:32:47:05:f0:32:e0:09:7d:59:3d:dd:09:28:
                    54:98:42:33:90:2c:ce:fa:31:42:e6:e9:96:c7:8b:
                    f7:90:05:7b:af:30:5b:77:4c:c2:86:c4:b7:fb:d4:
                    a7:73:c5:00:f4:93:bb:c8:b0:da:a5:c3:13:59:41:
                    d8:81:06:5b:92:6b:a8:01:48:37:1a:ae:36:8d:3c:
                    c5:ec:c6:3f:0c:42:c9:36:24:5e:53:36:23:db:b2:
                    80:b9:16:06:55:7c:5a:c0:ea:a0:92:51:d7:80:fb:
                    2c:17
                Exponent: 65537 (0x10001)
        X509v3 extensions:
            X509v3 Basic Constraints: 
                CA:FALSE
            X509v3 Subject Key Identifier: 
                87:9D:ED:4C:D8:AD:BB:A5:92:22:B5:DD:62:E8:44:B9:7D:CA:FA:BB
            X509v3 Authority Key Identifier: 
                keyid:17:92:83:4A:34:55:C0:04:EA:16:9E:7E:CA:61:0F:A3:1A:4A:22:9C
                DirName:/CN=yxs
                serial:D3:A8:8A:C4:A1:1E:7F:3B

            X509v3 Extended Key Usage: 
                TLS Web Client Authentication
            X509v3 Key Usage: 
                Digital Signature
    Signature Algorithm: ecdsa-with-SHA512
         30:64:02:30:3a:81:2c:7e:70:fc:72:5d:a8:0e:ff:7c:5f:3d:
         af:e9:6c:b6:35:be:f7:99:4f:f3:12:ca:4c:ab:dc:1e:be:b6:
         d8:2d:c6:d1:8b:31:52:a7:0e:05:08:e1:ef:2b:c4:ba:02:30:
         40:50:66:b2:3e:f0:dc:c9:59:dc:c1:80:80:e9:41:77:7c:fb:
         a8:06:22:28:17:ac:0b:82:3d:f4:44:1e:61:64:3a:5c:5f:96:
         44:4d:a3:fe:12:91:5b:f6:e4:73:5a:1a
-----BEGIN CERTIFICATE-----
MIIDADCCAoegAwIBAgIRAO38rebbUvV8/EMjgIbhCNYwCgYIKoZIzj0EAwQwDjEM
MAoGA1UEAwwDeXhzMB4XDTIyMDYyMjA0MDQ1NloXDTI0MDkyNDA0MDQ1NloweTEL
MAkGA1UEBhMCQ04xCzAJBgNVBAgMAkdEMQswCQYDVQQHDAJTWjEMMAoGA1UECgwD
UEtVMQ0wCwYDVQQLDARTRUNFMRAwDgYDVQQDDAdjbGllbnQyMSEwHwYJKoZIhvcN
AQkBFhJjbGllbnQyQHBrdS5lZHUuY24wggEiMA0GCSqGSIb3DQEBAQUAA4IBDwAw
ggEKAoIBAQDWDjJAu8urY78Qhcd9zzpdl7gD3rGqDlUUteo1HcHVpSrYCyM79idn
c3lszUBaax/QNNHG8NGCRTBaOjQK5iExMKAgRQL1u2fNMC76ujudnF7Z8UDysPNE
+kP7y9qCOYIBzRTdRuLxkIK9DT47u9JkCGqcfu51oJD3zgp2zZzoKZGbsjh4XzF5
A6v9JeSBmhPu38JMqsFeMkcF8DLgCX1ZPd0JKFSYQjOQLM76MULm6ZbHi/eQBXuv
MFt3TMKGxLf71KdzxQD0k7vIsNqlwxNZQdiBBluSa6gBSDcarjaNPMXsxj8MQsk2
JF5TNiPbsoC5FgZVfFrA6qCSUdeA+ywXAgMBAAGjgY8wgYwwCQYDVR0TBAIwADAd
BgNVHQ4EFgQUh53tTNitu6WSIrXdYuhEuX3K+rswPgYDVR0jBDcwNYAUF5KDSjRV
wATqFp5+ymEPoxpKIpyhEqQQMA4xDDAKBgNVBAMMA3l4c4IJANOoisShHn87MBMG
A1UdJQQMMAoGCCsGAQUFBwMCMAsGA1UdDwQEAwIHgDAKBggqhkjOPQQDBANnADBk
AjA6gSx+cPxyXagO/3xfPa/pbLY1vveZT/MSykyr3B6+ttgtxtGLMVKnDgUI4e8r
xLoCMEBQZrI+8NzJWdzBgIDpQXd8+6gGIigXrAuCPfREHmFkOlxflkRNo/4SkVv2
5HNaGg==
-----END CERTIFICATE-----
