Certificate:
    Data:
        Version: 3 (0x2)
        Serial Number:
            ef:53:bc:92:2f:f9:25:12:b3:91:61:95:f5:55:10:34
        Signature Algorithm: ecdsa-with-SHA512
        Issuer: CN=yxs
        Validity
            Not Before: Jun 22 01:51:55 2022 GMT
            Not After : Sep 24 01:51:55 2024 GMT
        Subject: C=CN, ST=GD, L=SZ, O=PKU, OU=SECE, CN=client5/emailAddress=123
        Subject Public Key Info:
            Public Key Algorithm: rsaEncryption
                RSA Public-Key: (2048 bit)
                Modulus:
                    00:b9:a9:d1:bc:a1:45:7a:b1:43:3b:48:99:47:e2:
                    ec:6e:4a:c9:f6:f6:92:0d:bb:90:78:5f:5a:c7:7f:
                    87:de:ca:11:45:f6:da:4c:c7:25:e9:5e:9f:3f:1f:
                    c8:7c:54:07:91:e9:62:d6:5c:1d:4a:f1:ef:6c:cb:
                    86:c7:cc:5b:42:6f:e5:86:29:4a:ce:c1:01:54:71:
                    1d:65:52:a9:5c:30:b4:40:7f:88:02:a9:aa:43:34:
                    23:ee:2c:6f:e7:65:e0:b8:f7:f9:aa:fa:fe:5b:36:
                    97:b5:28:9e:58:05:24:a9:c7:eb:df:21:4b:8f:32:
                    b3:df:3c:ce:65:ba:88:a5:98:ac:19:8b:81:52:27:
                    c3:79:9a:2b:61:52:1a:6a:bf:44:1e:7a:be:25:b0:
                    f2:2c:72:37:6f:72:30:65:b4:a5:29:06:15:26:2e:
                    0c:c1:0a:c9:73:80:8d:be:44:6c:ba:eb:3f:c6:df:
                    58:1e:bb:f7:b4:56:12:10:dd:56:d0:28:a5:c7:0a:
                    a9:07:d4:f3:75:a6:6d:a5:6d:9d:0f:54:7f:a0:cf:
                    da:e4:3d:25:69:d0:46:61:8d:2f:67:1e:a9:e2:ab:
                    80:9d:f5:f7:74:04:5d:ec:e6:12:94:42:ca:1c:3f:
                    00:3f:0f:ad:90:61:62:cf:7d:1a:8b:03:06:0c:a8:
                    b1:e1
                Exponent: 65537 (0x10001)
        X509v3 extensions:
            X509v3 Basic Constraints: 
                CA:FALSE
            X509v3 Subject Key Identifier: 
                68:97:C9:27:06:45:26:6F:D8:99:E9:0A:45:19:39:6B:B2:B7:61:9A
            X509v3 Authority Key Identifier: 
                keyid:17:92:83:4A:34:55:C0:04:EA:16:9E:7E:CA:61:0F:A3:1A:4A:22:9C
                DirName:/CN=yxs
                serial:D3:A8:8A:C4:A1:1E:7F:3B

            X509v3 Extended Key Usage: 
                TLS Web Client Authentication
            X509v3 Key Usage: 
                Digital Signature
    Signature Algorithm: ecdsa-with-SHA512
         30:64:02:30:78:37:68:f9:5d:84:97:bf:4d:87:79:28:50:e6:
         93:1c:01:76:f6:4e:14:c3:c7:9c:7f:71:5c:e5:4f:7f:25:e6:
         d3:6b:92:14:47:42:da:25:0d:77:d6:ad:c0:17:c4:fe:02:30:
         23:7b:de:a6:34:92:c0:ca:55:fb:1d:65:67:45:6f:4c:dc:1d:
         fb:ab:70:6b:29:7c:53:87:2f:89:fb:fa:2c:51:e8:49:3b:e4:
         ca:1f:9a:a1:41:54:90:67:2e:e9:a2:14
-----BEGIN CERTIFICATE-----
MIIC8TCCAnigAwIBAgIRAO9TvJIv+SUSs5FhlfVVEDQwCgYIKoZIzj0EAwQwDjEM
MAoGA1UEAwwDeXhzMB4XDTIyMDYyMjAxNTE1NVoXDTI0MDkyNDAxNTE1NVowajEL
MAkGA1UEBhMCQ04xCzAJBgNVBAgMAkdEMQswCQYDVQQHDAJTWjEMMAoGA1UECgwD
UEtVMQ0wCwYDVQQLDARTRUNFMRAwDgYDVQQDDAdjbGllbnQ1MRIwEAYJKoZIhvcN
AQkBFgMxMjMwggEiMA0GCSqGSIb3DQEBAQUAA4IBDwAwggEKAoIBAQC5qdG8oUV6
sUM7SJlH4uxuSsn29pINu5B4X1rHf4feyhFF9tpMxyXpXp8/H8h8VAeR6WLWXB1K
8e9sy4bHzFtCb+WGKUrOwQFUcR1lUqlcMLRAf4gCqapDNCPuLG/nZeC49/mq+v5b
Npe1KJ5YBSSpx+vfIUuPMrPfPM5luoilmKwZi4FSJ8N5mithUhpqv0Qeer4lsPIs
cjdvcjBltKUpBhUmLgzBCslzgI2+RGy66z/G31geu/e0VhIQ3VbQKKXHCqkH1PN1
pm2lbZ0PVH+gz9rkPSVp0EZhjS9nHqniq4Cd9fd0BF3s5hKUQsocPwA/D62QYWLP
fRqLAwYMqLHhAgMBAAGjgY8wgYwwCQYDVR0TBAIwADAdBgNVHQ4EFgQUaJfJJwZF
Jm/YmekKRRk5a7K3YZowPgYDVR0jBDcwNYAUF5KDSjRVwATqFp5+ymEPoxpKIpyh
EqQQMA4xDDAKBgNVBAMMA3l4c4IJANOoisShHn87MBMGA1UdJQQMMAoGCCsGAQUF
BwMCMAsGA1UdDwQEAwIHgDAKBggqhkjOPQQDBANnADBkAjB4N2j5XYSXv02HeShQ
5pMcAXb2ThTDx5x/cVzlT38l5tNrkhRHQtolDXfWrcAXxP4CMCN73qY0ksDKVfsd
ZWdFb0zcHfurcGspfFOHL4n7+ixR6Ek75MofmqFBVJBnLumiFA==
-----END CERTIFICATE-----
